******************************************************************************
               TMS320C6x Linker PC v7.4.6                      
******************************************************************************
>> Linked Fri Jan 30 21:19:11 2015

OUTPUT FILE NAME:   <helloworld_evmc6678l.out>
ENTRY POINT SYMBOL: "_c_int00"  address: 8035abe0


MEMORY CONFIGURATION

         name            origin    length      used     unused   attr    fill
----------------------  --------  ---------  --------  --------  ----  --------
  L2SRAM                00800000   00080000  0005dd40  000222c0  RW X
  MSMCSRAM              0c000000   00400000  00000000  00400000  RW X
  DDR3                  80000000   20000000  00385100  1fc7af00  RWIX


SEGMENT ALLOCATION MAP

run origin  load origin   length   init length attrs members
----------  ----------- ---------- ----------- ----- -------
00800000    00800000    0005d388   00000000    rw-
  00800000    00800000    00052b00   00000000    rw- .far:NDK_PACKETMEM
  00852b00    00852b00    00004400   00000000    rw- .far:taskStackSection
  00856f00    00856f00    00004000   00000000    rw- .resmgr_memregion
  0085af00    0085af00    00001488   00000000    rw- .resmgr_pa
  0085c388    0085c388    00001000   00000000    rw- .stack
0085d390    0085d390    00000600   00000000    rw-
  0085d390    0085d390    00000600   00000000    rw- .far:NDK_OBJMEM
0085da00    0085da00    00000318   00000318    rw-
  0085da00    0085da00    00000318   00000318    rw- .nimu_eth_ll2
0085dd20    0085dd20    000000a0   00000000    rw-
  0085dd20    0085dd20    000000a0   00000000    rw- .resmgr_handles
80000000    80000000    00300000   00000000    rw-
  80000000    80000000    00300000   00000000    rw- systemHeap
80300000    80300000    00064840   00064840    r-x
  80300000    80300000    00064840   00064840    r-x .text
80364840    80364840    0000db80   0000db80    rw-
  80364840    80364840    0000db80   0000db80    rw- .far
803723c0    803723c0    0000b502   0000b502    r--
  803723c0    803723c0    0000b502   0000b502    r-- .const
8037d8d0    8037d8d0    00000030   00000030    rw-
  8037d8d0    8037d8d0    00000030   00000030    rw- .fardata.1
8037d900    8037d900    00002400   00000000    rw-
  8037d900    8037d900    00002400   00000000    rw- .qmss
8037fd00    8037fd00    00001c46   00001c46    rw-
  8037fd00    8037fd00    00001c46   00001c46    rw- .fardata.2
80381948    80381948    00001370   00001370    rw-
  80381948    80381948    00001370   00001370    rw- platform_lib
80382cb8    80382cb8    00000344   00000344    r--
  80382cb8    80382cb8    00000344   00000344    r-- .switch.1
80383000    80383000    00000278   00000278    r-x
  80383000    80383000    00000200   00000200    r-x .vecs
  80383200    80383200    00000078   00000078    r-- .switch.2
80383278    80383278    0000006c   00000000    rw-
  80383278    80383278    0000006c   00000000    rw- .bss
803832e4    803832e4    00000269   00000269    rw-
  803832e4    803832e4    00000269   00000269    rw- .neardata
80383550    80383550    0000004c   0000004c    r--
  80383550    80383550    0000004c   0000004c    r-- .rodata
80383600    80383600    00000320   00000000    rw-
  80383600    80383600    00000200   00000000    rw- .cppi
  80383800    80383800    00000120   00000000    rw- .cio
80383920    80383920    00001858   00001858    r--
  80383920    80383920    00001858   00001858    r-- .cinit


SECTION ALLOCATION MAP

 output                                  attributes/
section   page    origin      length       input sections
--------  ----  ----------  ----------   ----------------
.init_array 
*          0    80000000    00000000     UNINITIALIZED

.far:NDK_PACKETMEM 
*          0    00800000    00052b00     UNINITIALIZED
                  00800000    00052b00     stk6_ppp_pppoe.ae66 : pbm_data.oe66 (.far:NDK_PACKETMEM)

.far:taskStackSection 
*          0    00852b00    00004400     UNINITIALIZED
                  00852b00    00004400     helloWorld_pe66.oe66 (.far:taskStackSection)

.resmgr_memregion 
*          0    00856f00    00004000     UNINITIALIZED
                  00856f00    00004000     resourcemgr.obj (.resmgr_memregion)

.resmgr_pa 
*          0    0085af00    00001488     UNINITIALIZED
                  0085af00    00001488     resourcemgr.obj (.resmgr_pa)

.stack     0    0085c388    00001000     UNINITIALIZED
                  0085c388    00000008     boot.ae66 : boot.oe66 (.stack)
                  0085c390    00000ff8     --HOLE--

.far:NDK_OBJMEM 
*          0    0085d390    00000600     UNINITIALIZED
                  0085d390    00000600     os.ae66 : ossys.oe66 (.far:NDK_OBJMEM)

.nimu_eth_ll2 
*          0    0085da00    00000318     
                  0085da00    00000308     ti.transport.ndk.nimu.ae66 : nimu_eth.obj (.nimu_eth_ll2:uninit) [fill = 0]
                  0085dd08    00000010                                : nimu_eth.obj (.nimu_eth_ll2:init)

.resmgr_handles 
*          0    0085dd20    000000a0     UNINITIALIZED
                  0085dd20    000000a0     resourcemgr.obj (.resmgr_handles)

xdc.meta   0    80000000    000000f0     COPY SECTION
                  80000000    000000f0     helloWorld_pe66.oe66 (xdc.meta)

systemHeap 
*          0    80000000    00300000     UNINITIALIZED
                  80000000    00300000     helloWorld_pe66.oe66 (systemHeap)

.text      0    80300000    00064840     
                  80300000    000060e0     KeyStone_common.obj (.text)
                  803060e0    00002d80     ti.transport.ndk.nimu.ae66 : nimu_eth.obj (.text)
                  80308e60    00001fe0     ti.platform.evm6678l.ae66 : platform.obj (.text)
                  8030ae40    00001b40                               : evmc6678.obj (.text)
                  8030c980    00001a00     stk6_ppp_pppoe.ae66 : tcpin.oe66 (.text:TcpInput)
                  8030e380    000019a0                         : tcp6in.oe66 (.text:TCP6Input)
                  8030fd20    00001400     KeyStone_SPI_Init_drv.obj (.text)
                  80311120    00001240     stk6_ppp_pppoe.ae66 : tcpout.oe66 (.text:TcpOutput)
                  80312360    00001180                         : tcp6out.oe66 (.text:TCP6Output)
                  803134e0    00001160     ti.platform.evm6678l.ae66 : evm66x_nand.obj (.text)
                  80314640    00000d80                               : evmc66x_i2c_eeprom.obj (.text)
                  803153c0    00000d00     resourcemgr.obj (.text)
                  803160c0    00000b80     stk6_ppp_pppoe.ae66 : ipin.oe66 (.text:IPRxPacket)
                  80316c40    00000aa0                         : md5.oe66 (.text:MD5Transform)
                  803176e0    000009c0                         : ipout.oe66 (.text:IPTxPacket)
                  803180a0    000009a0                         : lcp.oe66 (.text:lcpInput)
                  80318a40    000009a0     ti.targets.rts6000.ae66 : System.oe66 (.text:xdc_runtime_System_doPrint__I)
                  803193e0    000008a0     nettool.ae66 : httpclie.oe66 (.text:httpClientProcess)
                  80319c80    00000820     helloWorld.obj (.text)
                  8031a4a0    000007e0     ti.drv.qmss.ae66 : qmss_drv.oe66 (.text:Qmss_insertMemoryRegion)
                  8031ac80    000007e0     stk6_ppp_pppoe.ae66 : ipcp.oe66 (.text:ipcpInput)
                  8031b460    000007c0     nettool.ae66 : httpsend.oe66 (.text:SetContentType)
                  8031bc20    000007c0     stk6_ppp_pppoe.ae66 : sock.oe66 (.text:SockSet)
                  8031c3e0    000007a0                         : fileuser.oe66 (.text:fdPoll)
                  8031cb80    00000780     sysbios.lib : BIOS.obj (.text:ti_sysbios_family_c64p_Exception_handler__I)
                  8031d300    00000720     ti.drv.pa.ae66 : pa.oe66 (.text:Pa_addMac)
                  8031da20    000006c0     nettool.ae66 : telnetd.oe66 (.text:telnet_netdata)
                  8031e0e0    00000680     stk6_ppp_pppoe.ae66 : icmpv6_ndisc.oe66 (.text:ICMPv6RecvRA)
                  8031e760    00000660     ti.drv.cppi.ae66 : cppi_drv.oe66 (.text:Cppi_configureRxFlow)
                  8031edc0    00000660     GPIO_drv.obj (.text)
                  8031f420    00000660     sysbios.lib : BIOS.obj (.text:ti_sysbios_heaps_HeapMem_free__E)
                  8031fa80    00000620     stk6_ppp_pppoe.ae66 : route6.oe66 (.text:Rt6Create)
                  803200a0    00000620     sysbios.lib : BIOS.obj (.text:ti_sysbios_heaps_HeapMem_alloc__E)
                  803206c0    00000600     KeyStone_common.obj (.text:retain)
                  80320cc0    000005c0     stk6_ppp_pppoe.ae66 : ipfrag.oe66 (.text:IPReasm)
                  80321280    000005c0     rts6600_elf.lib : divd.obj (.text:__c6xabi_divd)
                  80321840    000005c0                     : _printfi.obj (.text:_getarg_diouxp)
                  80321e00    000005c0     sysbios.lib : BIOS.obj (.text:ti_sysbios_timers_timer64_Timer_Module_startup__F)
                  803223c0    000005a0     stk6_ppp_pppoe.ae66 : icmpin.oe66 (.text:ICMPInput)
                  80322960    000005a0     ti.platform.evm6678l.ae66 : evmc66x_spi.obj (.text)
                  80322f00    00000580     stk6_ppp_pppoe.ae66 : nimuppp.oe66 (.text:pppEvent)
                  80323480    00000560                         : ipv6.oe66 (.text:IPv6IPAddressToString)
                  803239e0    00000560     ti.platform.evm6678l.ae66 : evmc6678_phy.obj (.text)
                  80323f40    00000520     stk6_ppp_pppoe.ae66 : sock.oe66 (.text:SockNew)
                  80324460    00000520     rts6600_elf.lib : _printfi.obj (.text:_setfield)
                  80324980    00000520     ti.platform.evm6678l.ae66 : evmc66x_nor.obj (.text)
                  80324ea0    00000500     sysbios.lib : BIOS.obj (.text:ti_sysbios_knl_Task_Instance_finalize__F)
                  803253a0    000004e0     stk6_ppp_pppoe.ae66 : udp.oe66 (.text:UdpInput)
                  80325880    000004e0                         : nimupppoe.oe66 (.text:pppoeInputS)
                  80325d60    000004c0     ti.drv.cppi.ae66 : cppi_drv.oe66 (.text:Cppi_txChannelOpen)
                  80326220    000004c0     stk6_ppp_pppoe.ae66 : sock6.oe66 (.text:Sock6Connect)
                  803266e0    000004c0                         : sock6.oe66 (.text:Sock6Set)
                  80326ba0    000004c0     ti.platform.evm6678l.ae66 : evmc66x_fpga.obj (.text)
                  80327060    000004a0     stk6_ppp_pppoe.ae66 : bind6.oe66 (.text:Bind6New)
                  80327500    000004a0                         : lliin.oe66 (.text:LLIRxPacket)
                  803279a0    000004a0                         : sock6.oe66 (.text:Sock6Recv)
                  80327e40    000004a0                         : sock.oe66 (.text:SockRecv)
                  803282e0    00000460     rts6600_elf.lib : _printfi.obj (.text:_printfi)
                  80328740    00000460     stk6_ppp_pppoe.ae66 : nimuppp.oe66 (.text:pppNew)
                  80328ba0    00000440     KeyStone_common.obj (.text:Core_MPAX)
                  80328fe0    00000440     ti.drv.cppi.ae66 : cppi_drv.oe66 (.text:Cppi_rxChannelOpen)
                  80329420    00000440     stk6_ppp_pppoe.ae66 : sock6.oe66 (.text:Sock6New)
                  80329860    00000440                         : auth.oe66 (.text:chapInput)
                  80329ca0    00000440                         : fileuser.oe66 (.text:fdSelect)
                  8032a0e0    00000440                         : nimupppoe.oe66 (.text:pppoeInputC)
                  8032a520    00000420     nettool.ae66 : daemon.oe66 (.text:daemon)
                  8032a940    00000420     ti.drv.pa.ae66 : pa.oe66 (.text:pa_conv_routing_info)
                  8032ad60    00000400     stk6_ppp_pppoe.ae66 : sock6.oe66 (.text:Sock6Send)
                  8032b160    00000400     os.ae66 : efs.oe66 (.text:efs_filecheck)
                  8032b560    00000400     sysbios.lib : BIOS.obj (.text:ti_sysbios_knl_Semaphore_pend__E)
                  8032b960    000003e0     stk6_ppp_pppoe.ae66 : ipv6_frag.oe66 (.text:IPv6TxFragPacket)
                  8032bd40    000003c0     ti.drv.cppi.ae66 : cppi_desc.oe66 (.text:Cppi_initDescriptor)
                  8032c100    000003c0     stk6_ppp_pppoe.ae66 : ipv6out.oe66 (.text:IPv6TxPacket)
                  8032c4c0    000003c0                         : lli6.oe66 (.text:LLI6TimerCheck)
                  8032c880    000003c0                         : sock.oe66 (.text:SockSend)
                  8032cc40    000003c0                         : tcp6.oe66 (.text:TCP6TimeoutCheck)
                  8032d000    000003c0                         : tcp.oe66 (.text:TcpTimeoutCheck)
                  8032d3c0    000003c0     sysbios.lib : BIOS.obj (.text:ti_sysbios_knl_Task_Instance_init__F)
                  8032d780    000003c0                 : BIOS.obj (.text:ti_sysbios_knl_Task_setPri__E)
                  8032db40    000003a0     stk6_ppp_pppoe.ae66 : nimu.oe66 (.text:NIMUIoctl)
                  8032dee0    000003a0                         : route.oe66 (.text:RtCreate)
                  8032e280    000003a0                         : sb.oe66 (.text:SBRead)
                  8032e620    000003a0     os.ae66 : mem.oe66 (.text:_mmCheck)
                  8032e9c0    000003a0     rts6600_elf.lib : fputs.obj (.text:fputs)
                  8032ed60    000003a0     stk6_ppp_pppoe.ae66 : auth.oe66 (.text:papInput)
                  8032f100    00000380                         : icmpv6in.oe66 (.text:ICMPv6RxPacket)
                  8032f480    00000380                         : igmp.oe66 (.text:IGMPInput)
                  8032f800    00000380                         : sock6int.oe66 (.text:Sock6Notify)
                  8032fb80    00000380                         : sock.oe66 (.text:SockConnect)
                  8032ff00    00000380                         : sockint.oe66 (.text:SockNotify)
                  80330280    00000380     nettool.ae66 : dhcppkt.oe66 (.text:dhcpPacketProcess)
                  80330600    00000360     stk6_ppp_pppoe.ae66 : icmpv6out.oe66 (.text:ICMPv6SendParameterProblem)
                  80330960    00000360                         : ipv6_frag.oe66 (.text:IPv6FragReasm)
                  80330cc0    00000360                         : lliout.oe66 (.text:LLITxIpPacket)
                  80331020    00000360     helloWorld_pe66.oe66 (.text:xdc_runtime_System_printfExtend__I)
                  80331380    00000340     ti.drv.pa.ae66 : painit.oe66 (.text:Pa_create)
                  803316c0    00000340     ti.drv.qmss.ae66 : qmss_drv.oe66 (.text:Qmss_init)
                  80331a00    00000340     os.ae66 : mem.oe66 (.text:mmAlloc)
                  80331d40    00000340     stk6_ppp_pppoe.ae66 : nimupppoe.oe66 (.text:pppoeSI)
                  80332080    00000320     nettool.ae66 : config.oe66 (.text:CfgAddEntry)
                  803323a0    00000320     stk6_ppp_pppoe.ae66 : icmpv6_ndisc.oe66 (.text:ICMPv6RecvRedirect)
                  803326c0    00000320                         : nimupppoe.oe66 (.text:SendServerMsg)
                  803329e0    00000320     rts6600_elf.lib : _printfi.obj (.text:_pproc_fge)
                  80332d00    00000320     nettool.ae66 : telnetd.oe66 (.text:telnet_engine)
                  80333020    00000320     ti.platform.evm6678l.ae66 : evmc66x_uart.obj (.text)
                  80333340    00000300     stk6_ppp_pppoe.ae66 : icmpv6_ndisc.oe66 (.text:ICMPv6RecvNS)
                  80333640    00000300                         : icmpv6out.oe66 (.text:ICMPv6SendDstUnreachable)
                  80333940    00000300                         : icmpv6out.oe66 (.text:ICMPv6SendTimeExceeded)
                  80333c40    00000300     netctrl.ae66 : netctrl.oe66 (.text:NetScheduler)
                  80333f40    00000300     stk6_ppp_pppoe.ae66 : sock6pcb.oe66 (.text:Sock6PcbBind)
                  80334240    00000300                         : udp6.oe66 (.text:Udp6Input)
                  80334540    00000300     nettool.ae66 : inetaddr.oe66 (.text:inet_aton)
                  80334840    00000300     platform_osal.obj (.text)
                  80334b40    00000300     sysbios.lib : BIOS.obj (.text:ti_sysbios_family_c64p_Hwi_dispatchC__I)
                  80334e40    000002e0     stk6_ppp_pppoe.ae66 : ipv6_frag.oe66 (.text:IPv6FragQEnqueueFrag)
                  80335120    000002e0     ti.drv.pa.ae66 : pa.oe66 (.text:Pa_forwardResult)
                  80335400    000002e0     stk6_ppp_pppoe.ae66 : route6.oe66 (.text:Rt6Find)
                  803356e0    000002e0                         : nimupppoe.oe66 (.text:SendClientMsg)
                  803359c0    000002e0                         : udp.oe66 (.text:UdpOutput)
                  80335ca0    000002e0     rts6600_elf.lib : _printfi.obj (.text:_pproc_fwp)
                  80335f80    000002e0     sysbios.lib : BIOS.obj (.text:ti_sysbios_knl_Task_Module_startup__F)
                  80336260    000002c0     stk6_ppp_pppoe.ae66 : bind.oe66 (.text:BindNew)
                  80336520    000002c0                         : sb6.oe66 (.text:SB6Read)
                  803367e0    000002c0                         : sock6pcb.oe66 (.text:Sock6PcbResolve)
                  80336aa0    000002c0                         : udp6.oe66 (.text:Udp6Output)
                  80336d60    000002c0                         : nimuppp.oe66 (.text:pppInput)
                  80337020    000002a0                         : ipv6_exthdrs.oe66 (.text:IPv6ParseExtnHeaders)
                  803372c0    000002a0                         : node.oe66 (.text:NodeAdd)
                  80337560    000002a0                         : route6.oe66 (.text:Rt6Free)
                  80337800    000002a0                         : rtable.oe66 (.text:RtFind)
                  80337aa0    000002a0                         : sock6pcb.oe66 (.text:Sock6PcbFind)
                  80337d40    000002a0                         : sock.oe66 (.text:SockClose)
                  80337fe0    000002a0                         : tcp6prot.oe66 (.text:TCP6PrSetOption)
                  80338280    000002a0                         : tcpprot.oe66 (.text:TcpPrSetOption)
                  80338520    000002a0     rts6600_elf.lib : _printfi.obj (.text:fcvt)
                  803387c0    000002a0     sysbios.lib : BIOS.obj (.text:ti_sysbios_family_c66_tci66xx_CpIntc_Module_startup__F)
                  80338a60    000002a0                 : BIOS.obj (.text:ti_sysbios_knl_Clock_workFunc__E)
                  80338d00    000002a0                 : BIOS.obj (.text:ti_sysbios_knl_Task_sleep__E)
                  80338fa0    00000280     nettool.ae66 : dhcpmain.oe66 (.text:DHCPOpen)
                  80339220    00000280     stk6_ppp_pppoe.ae66 : icmp.oe66 (.text:ICMPGenPacket)
                  803394a0    00000280                         : icmpv6in.oe66 (.text:ICMPv6RecvEchoRequest)
                  80339720    00000280                         : lli6.oe66 (.text:LLI6NeighUnreachStateMachine)
                  803399a0    00000280                         : sockpcb.oe66 (.text:SockPcbResolve)
                  80339c20    00000280                         : sock.oe66 (.text:SockRecvNC)
                  80339ea0    00000280                         : tcp6out.oe66 (.text:TCP6GenPacket)
                  8033a120    00000280     rts6600_elf.lib : divf.obj (.text:__c6xabi_divf)
                  8033a3a0    00000280     sysbios.lib : BIOS.obj (.text:deviceConfig$44)
                  8033a620    00000280     rts6600_elf.lib : _printfi.obj (.text:ecvt)
                  8033a8a0    00000280     stk6_ppp_pppoe.ae66 : ipcp.oe66 (.text:ipcpSendCfg)
                  8033ab20    00000280                         : lcp.oe66 (.text:lcpSendCfg)
                  8033ada0    00000280     sysbios.lib : BIOS.obj (.text:ti_sysbios_knl_Clock_Instance_init__F)
                  8033b020    00000280                 : BIOS.obj (.text:ti_sysbios_knl_Task_exit__E)
                  8033b2a0    00000280     ti.targets.rts6000.ae66 : Core-mem.oe66 (.text:xdc_runtime_Core_createObject__I)
                  8033b520    00000280                             : Error.oe66 (.text:xdc_runtime_Error_raiseX__F)
                  8033b7a0    00000260     stk6_ppp_pppoe.ae66 : icmpv6_ndisc.oe66 (.text:ICMPv6SendNA)
                  8033ba00    00000260                         : icmpv6_ndisc.oe66 (.text:ICMPv6SendNS)
                  8033bc60    00000260                         : lli6.oe66 (.text:LLI6TxIPPacket)
                  8033bec0    00000260                         : nimu.oe66 (.text:NIMUReceivePacket)
                  8033c120    00000260                         : rawethsock.oe66 (.text:RawEthSockSet)
                  8033c380    00000260                         : sb6.oe66 (.text:SB6Write)
                  8033c5e0    00000260                         : sb.oe66 (.text:SBWrite)
                  8033c840    00000260                         : sock6.oe66 (.text:Sock6Close)
                  8033caa0    00000260                         : sockpcb.oe66 (.text:SockPcbBind)
                  8033cd00    00000260     nettool.ae66 : httppars.oe66 (.text:httpParseRecv)
                  8033cf60    00000260     ti.targets.rts6000.ae66 : Startup.oe66 (.text:xdc_runtime_Startup_startMods__I)
                  8033d1c0    00000240     ti.drv.cppi.ae66 : cppi_drv.oe66 (.text:Cppi_open)
                  8033d400    00000240     nettool.ae66 : daemon.oe66 (.text:DaemonNew)
                  8033d640    00000240     ti.drv.pa.ae66 : pa.oe66 (.text:Pa_resetControl)
                  8033d880    00000240     stk6_ppp_pppoe.ae66 : pipe.oe66 (.text:PipeRecv)
                  8033dac0    00000240                         : raw.oe66 (.text:RawInput)
                  8033dd00    00000240     rts6600_elf.lib : imath64.obj (.text:__c6xabi_divull)
                  8033df40    00000240                     : _printfi.obj (.text:_pconv_e)
                  8033e180    00000240                     : _printfi.obj (.text:_pproc_diouxp)
                  8033e3c0    00000240     nettool.ae66 : dhcpsm.oe66 (.text:dhcpIPAdd)
                  8033e600    00000240                  : dhcpsm.oe66 (.text:dhcpState)
                  8033e840    00000240     sysbios.lib : BIOS.obj (.text:ti_sysbios_family_c64p_Exception_internalHandler__I)
                  8033ea80    00000240                 : BIOS.obj (.text:ti_sysbios_knl_Semaphore_post__E)
                  8033ecc0    00000240     ti.targets.rts6000.ae66 : LoggerBuf.oe66 (.text:xdc_runtime_LoggerBuf_write8__F)
                  8033ef00    00000220     stk6_ppp_pppoe.ae66 : bind6.oe66 (.text:Bind6RunDAD)
                  8033f120    00000220                         : icmpv6_ndisc.oe66 (.text:ICMPv6RecvNA)
                  8033f340    00000220                         : igmp.oe66 (.text:IGMPJoinHostGroup)
                  8033f560    00000220                         : ipv6in.oe66 (.text:IPv6RxPacket)
                  8033f780    00000220                         : rawethsock.oe66 (.text:RawEthSockNew)
                  8033f9a0    00000220     SPI_Intc.obj (.text)
                  8033fbc0    00000220     stk6_ppp_pppoe.ae66 : sockpcb.oe66 (.text:SockPcbFind)
                  8033fde0    00000220     rts6600_elf.lib : _printfi.obj (.text:_pproc_str)
                  80340000    00000220     nettool.ae66 : dhcppkt.oe66 (.text:dhcpVerifyMessage)
                  80340220    00000220     rts6600_elf.lib : fputc.obj (.text:fputc)
                  80340440    00000220     nettool.ae66 : httpclie.oe66 (.text:httpGetAuthParams)
                  80340660    00000220     sysbios.lib : BIOS.obj (.text:ti_sysbios_family_c64p_Hwi_reconfig__E)
                  80340880    00000220                 : BIOS.obj (.text:ti_sysbios_knl_Swi_run__I)
                  80340aa0    00000220                 : BIOS.obj (.text:ti_sysbios_knl_Task_schedule__I)
                  80340cc0    00000220                 : BIOS.obj (.text:ti_sysbios_knl_Task_startup__E)
                  80340ee0    00000200     stk6_ppp_pppoe.ae66 : ipv6_frag.oe66 (.text:IPv6ParseFragHdr)
                  803410e0    00000200                         : lli6.oe66 (.text:LLI6New)
                  803412e0    00000200     ti.drv.qmss.ae66 : qmss_drv.oe66 (.text:Qmss_internalQueueOpen)
                  803414e0    00000200                      : qmss_acc.oe66 (.text:Qmss_programAccumulator)
                  803416e0    00000200     stk6_ppp_pppoe.ae66 : rtc.oe66 (.text:RTCReport)
                  803418e0    00000200                         : raw6.oe66 (.text:Raw6Output)
                  80341ae0    00000200     rts6600_elf.lib : _printfi.obj (.text:_pconv_g)
                  80341ce0    00000200     sysbios.lib : c64p_Hwi_disp_always.obj (.text:_ti_sysbios_family_c64p_Hwi_dispatchAlways)
                  80341ee0    00000200     stk6_ppp_pppoe.ae66 : socket.oe66 (.text:accept)
                  803420e0    00000200     sysbios.lib : BIOS.obj (.text:block$56)
                  803422e0    00000200     ti.drv.cppi.ae66 : cppi_heap.oe66 (.text:cppi_internal_heap_add)
                  803424e0    00000200     stk6_ppp_pppoe.ae66 : nimupppoe.oe66 (.text:pppoeCtrlMsg)
                  803426e0    00000200     rts6600_elf.lib : setvbuf.obj (.text:setvbuf)
                  803428e0    000001e0     stk6_ppp_pppoe.ae66 : igmp.oe66 (.text:IGMPSendReply)
                  80342ac0    000001e0                         : route6.oe66 (.text:Rt6Modify)
                  80342ca0    000001e0                         : sock6pcb.oe66 (.text:Sock6PcbFindRaw)
                  80342e80    000001e0                         : tcpout.oe66 (.text:TcpGenPacket)
                  80343060    000001e0                         : auth.oe66 (.text:chapSendMsg)
                  80343240    000001e0     nettool.ae66 : dhcpsock.oe66 (.text:dhcpSocketOpen)
                  80343420    000001e0     stk6_ppp_pppoe.ae66 : socket.oe66 (.text:sendto)
                  80343600    000001e0     sysbios.lib : BIOS.obj (.text:ti_sysbios_knl_Task_postInit__I)
                  803437e0    000001e0                 : BIOS.obj (.text:ti_sysbios_timers_timer64_Timer_getFreq__E)
                  803439c0    000001c0     nettool.ae66 : config.oe66 (.text:CfgExecute)
                  80343b80    000001c0     ti.drv.cppi.ae66 : cppi_drv.oe66 (.text:Cppi_channelClose)
                  80343d40    000001c0                      : cppi_drv.oe66 (.text:Cppi_initCfg)
                  80343f00    000001c0     stk6_ppp_pppoe.ae66 : ip.oe66 (.text:IPGetRoute)
                  803440c0    000001c0                         : ipv6_exthdrs.oe66 (.text:IPv6ParseHopOptions)
                  80344280    000001c0                         : lliout.oe66 (.text:LLIGenArpPacket)
                  80344440    000001c0     ti.drv.qmss.ae66 : qmss_drv.oe66 (.text:Qmss_internaldownloadFirmware)
                  80344600    000001c0     netctrl.ae66 : netsrv.oe66 (.text:SPIpNet)
                  803447c0    000001c0     stk6_ppp_pppoe.ae66 : tcptime.oe66 (.text:TcpTimeoutRexmt)
                  80344980    000001c0                         : lli.oe66 (.text:_LLITimeoutCheck)
                  80344b40    000001c0     rts6600_elf.lib : _printfi.obj (.text:_mcpy)
                  80344d00    000001c0     nettool.ae66 : dhcpbild.oe66 (.text:dhcpBuildHeader)
                  80344ec0    000001c0     stk6_ppp_pppoe.ae66 : fileuser.oe66 (.text:fdClose)
                  80345080    000001c0                         : socket.oe66 (.text:recvncfrom)
                  80345240    000001c0     sysbios.lib : BIOS.obj (.text:ti_sysbios_knl_Task_checkStacks__E)
                  80345400    000001c0                 : BIOS.obj (.text:ti_sysbios_timers_timer64_Timer_setPeriodMicroSecs__E)
                  803455c0    000001a0     stk6_ppp_pppoe.ae66 : bind6.oe66 (.text:Bind6Msg)
                  80345760    000001a0     nettool.ae66 : config.oe66 (.text:CfgRemoveEntry)
                  80345900    000001a0     rts6600_elf.lib : trgdrv.obj (.text:HOSTrename)
                  80345aa0    000001a0     stk6_ppp_pppoe.ae66 : icmpin.oe66 (.text:ICMPRevSrcRoute)
                  80345c40    000001a0                         : ipv6_frag.oe66 (.text:IPv6FragMsg)
                  80345de0    000001a0                         : ipv6_exthdrs.oe66 (.text:IPv6ParseRoutingHdr)
                  80345f80    000001a0     netctrl.ae66 : netctrl.oe66 (.text:NC_NetStart)
                  80346120    000001a0     stk6_ppp_pppoe.ae66 : node.oe66 (.text:NodeTreeFree)
                  803462c0    000001a0     ti.drv.pa.ae66 : pa.oe66 (.text:Pa_downloadImage)
                  80346460    000001a0     stk6_ppp_pppoe.ae66 : raw6.oe66 (.text:Raw6Input)
                  80346600    000001a0                         : route6.oe66 (.text:Route6LifetimeMgmt)
                  803467a0    000001a0                         : sockint.oe66 (.text:SockCreatePacket)
                  80346940    000001a0     nettool.ae66 : dhcpsm.oe66 (.text:StateRenewRebind)
                  80346ae0    000001a0     stk6_ppp_pppoe.ae66 : tcp6time.oe66 (.text:TCP6TimeoutRexmt)
                  80346c80    000001a0     rts6600_elf.lib : imath40.obj (.text:__c6xabi_divul)
                  80346e20    000001a0     nettool.ae66 : dhcptags.oe66 (.text:dhcpBuildOptions)
                  80346fc0    000001a0     stk6_ppp_pppoe.ae66 : socket.oe66 (.text:getpeername)
                  80347160    000001a0     nettool.ae66 : telnetd.oe66 (.text:telnet_termdata)
                  80347300    000001a0     sysbios.lib : BIOS.obj (.text:ti_sysbios_family_c66_tci66xx_CpIntc_dispatch__F)
                  803474a0    000001a0                 : BIOS.obj (.text:ti_sysbios_gates_GateMutex_enter__E)
                  80347640    000001a0                 : BIOS.obj (.text:ti_sysbios_timers_timer64_Timer_start__E)
                  803477e0    000001a0     ti.targets.rts6000.ae66 : LoggerBuf.oe66 (.text:xdc_runtime_LoggerBuf_write4__F)
                  80347980    00000180     stk6_ppp_pppoe.ae66 : bind6.oe66 (.text:Bind6GetGlobalAddress)
                  80347b00    00000180                         : igmp.oe66 (.text:IGMPMsg)
                  80347c80    00000180                         : nimu.oe66 (.text:NIMURegister)
                  80347e00    00000180     netctrl.ae66 : netsrv.oe66 (.text:ServiceScan)
                  80347f80    00000180                  : netsrv.oe66 (.text:ServiceSpawn)
                  80348100    00000180     nettool.ae66 : dhcpsm.oe66 (.text:StateBound)
                  80348280    00000180     rts6600_elf.lib : copy_decompress_rle.obj (.text:__TI_decompress_rle_core)
                  80348400    00000180     stk6_ppp_pppoe.ae66 : socket.oe66 (.text:bind)
                  80348580    00000180     nettool.ae66 : dhcpbild.oe66 (.text:dhcpBuildRequest)
                  80348700    00000180     os.ae66 : task.oe66 (.text:llEnter)
                  80348880    00000180     stk6_ppp_pppoe.ae66 : auth.oe66 (.text:papSendCfg)
                  80348a00    00000180     sysbios.lib : c64p_Exception_asm.obj (.text)
                  80348b80    00000180                 : BIOS.obj (.text:ti_sysbios_heaps_HeapBuf_Module_startup__F)
                  80348d00    00000180                 : BIOS.obj (.text:ti_sysbios_heaps_HeapMem_Instance_init__F)
                  80348e80    00000180                 : BIOS.obj (.text:ti_sysbios_knl_Swi_schedule__I)
                  80349000    00000180                 : BIOS.obj (.text:ti_sysbios_knl_Task_unblockI__E)
                  80349180    00000180     ti.targets.rts6000.ae66 : Text.oe66 (.text:xdc_runtime_Text_putSite__F)
                  80349300    00000160     nettool.ae66 : config.oe66 (.text:CfgGetEntry)
                  80349460    00000160                  : config.oe66 (.text:CfgGetNextEntry)
                  803495c0    00000160     os.ae66 : ossys.oe66 (.text:DbgPrintf)
                  80349720    00000160     stk6_ppp_pppoe.ae66 : igmp.oe66 (.text:IGMPDoMCast)
                  80349880    00000160                         : nimu.oe66 (.text:NIMUIoctlSpecialCmd)
                  803499e0    00000160                         : pbm.oe66 (.text:PBM_free)
                  80349b40    00000160                         : nimuppp.oe66 (.text:PPPStop)
                  80349ca0    00000160                         : pipe.oe66 (.text:PipeSend)
                  80349e00    00000160                         : raw.oe66 (.text:RawOutput)
                  80349f60    00000160                         : rtable.oe66 (.text:RtTimeoutCheck)
                  8034a0c0    00000160                         : rtable.oe66 (.text:RtWalkNext)
                  8034a220    00000160     netctrl.ae66 : netsrv.oe66 (.text:SPRoute)
                  8034a380    00000160     stk6_ppp_pppoe.ae66 : sock6.oe66 (.text:Sock6Check)
                  8034a4e0    00000160                         : sock6int.oe66 (.text:Sock6CreatePacket)
                  8034a640    00000160                         : sock6pcb.oe66 (.text:Sock6PcbConnect)
                  8034a7a0    00000160                         : sock.oe66 (.text:SockCheck)
                  8034a900    00000160                         : sockpcb.oe66 (.text:SockPcbConnect)
                  8034aa60    00000160     nettool.ae66 : dhcpsm.oe66 (.text:StateRequesting)
                  8034abc0    00000160     stk6_ppp_pppoe.ae66 : tcp6time.oe66 (.text:TCP6TimeoutKeep)
                  8034ad20    00000160                         : tcptime.oe66 (.text:TcpTimeoutKeep)
                  8034ae80    00000160                         : auth.oe66 (.text:authInit)
                  8034afe0    00000160     nettool.ae66 : httpclie.oe66 (.text:httpExtractTag)
                  8034b140    00000160                  : httpsend.oe66 (.text:httpSendErrorHTML)
                  8034b2a0    00000160     stk6_ppp_pppoe.ae66 : socket.oe66 (.text:setsockopt)
                  8034b400    00000160     nettool.ae66 : telnetd.oe66 (.text:telnetClientProcess)
                  8034b560    00000140     stk6_ppp_pppoe.ae66 : bind6.oe66 (.text:Bind6DADCheck)
                  8034b6a0    00000140                         : bind6.oe66 (.text:Bind6Free)
                  8034b7e0    00000140     ti.csl.ae66 : csl_chip.oe66 (.text:CSL_chipReadReg)
                  8034b920    00000140     stk6_ppp_pppoe.ae66 : exec.oe66 (.text:ExecOpen)
                  8034ba60    00000140                         : icmp.oe66 (.text:ICMPSendRtAdv)
                  8034bba0    00000140                         : igmp.oe66 (.text:IGMPJoin)
                  8034bce0    00000140                         : ipv6.oe66 (.text:IPv6DisplayIPAddress)
                  8034be20    00000140                         : lli6.oe66 (.text:LLI6Find)
                  8034bf60    00000140                         : lli.oe66 (.text:LLINew)
                  8034c0a0    00000140                         : node.oe66 (.text:NodeFind)
                  8034c1e0    00000140                         : node.oe66 (.text:NodeWalk)
                  8034c320    00000140                         : pbm.oe66 (.text:PBM_alloc)
                  8034c460    00000140                         : rtable.oe66 (.text:RtFlush)
                  8034c5a0    00000140                         : sb6.oe66 (.text:SB6New)
                  8034c6e0    00000140     netctrl.ae66 : netsrv.oe66 (.text:ServiceKill)
                  8034c820    00000140     stk6_ppp_pppoe.ae66 : sock6.oe66 (.text:Sock6Accept)
                  8034c960    00000140                         : sock6.oe66 (.text:Sock6Listen)
                  8034caa0    00000140                         : sock.oe66 (.text:SockAccept)
                  8034cbe0    00000140                         : sock.oe66 (.text:SockListen)
                  8034cd20    00000140                         : sockpcb.oe66 (.text:SockPcbCtlError)
                  8034ce60    00000140     boot.ae66 : autoinit.oe66 (.text:_auto_init_elf)
                  8034cfa0    00000140     rts6600_elf.lib : _printfi.obj (.text:_pproc_fflags)
                  8034d0e0    00000140     stk6_ppp_pppoe.ae66 : auth.oe66 (.text:authGetPassword)
                  8034d220    00000140     nettool.ae66 : dhcptags.oe66 (.text:dhcpDecodeType)
                  8034d360    00000140     rts6600_elf.lib : lowlev.obj (.text:getdevice)
                  8034d4a0    00000140     nettool.ae66 : httpsend.oe66 (.text:httpAuthenticationReq)
                  8034d5e0    00000140     os.ae66 : mem.oe66 (.text:mmCopy)
                  8034d720    00000140     stk6_ppp_pppoe.ae66 : socket.oe66 (.text:recv)
                  8034d860    00000140                         : socket.oe66 (.text:send)
                  8034d9a0    00000140     sysbios.lib : BIOS.obj (.text:ti_sysbios_family_c64p_Hwi_Module_startup__F)
                  8034dae0    00000140                 : BIOS.obj (.text:ti_sysbios_family_c66_Cache_Module_startup__F)
                  8034dc20    00000140                 : BIOS.obj (.text:ti_sysbios_knl_Clock_Instance_finalize__F)
                  8034dd60    00000140                 : BIOS.obj (.text:ti_sysbios_knl_Semaphore_Instance_init__F)
                  8034dea0    00000140                 : BIOS.obj (.text:ti_sysbios_knl_Swi_post__E)
                  8034dfe0    00000140                 : BIOS.obj (.text:ti_sysbios_knl_Task_blockI__E)
                  8034e120    00000120     stk6_ppp_pppoe.ae66 : bind6.oe66 (.text:Bind6LifetimeMgmt)
                  8034e240    00000120                         : bind.oe66 (.text:BindFree)
                  8034e360    00000120     nettool.ae66 : config.oe66 (.text:CfgFree)
                  8034e480    00000120                  : daemon.oe66 (.text:DaemonFree)
                  8034e5a0    00000120     stk6_ppp_pppoe.ae66 : file.oe66 (.text:FdWaitEvent)
                  8034e6c0    00000120                         : igmp.oe66 (.text:IGMPLeaveHostGroup)
                  8034e7e0    00000120                         : ip.oe66 (.text:IPMsg)
                  8034e900    00000120                         : ipin.oe66 (.text:IPRouteIP)
                  8034ea20    00000120                         : ipv6_frag.oe66 (.text:IPv6CreateFragQ)
                  8034eb40    00000120                         : ipv6.oe66 (.text:IPv6Init)
                  8034ec60    00000120                         : icmpv6out.oe66 (.text:IsICMPv6ErrorPkt)
                  8034ed80    00000120                         : md5.oe66 (.text:MD5Update)
                  8034eea0    00000120                         : mld.oe66 (.text:MLDJoinGroup)
                  8034efc0    00000120     netctrl.ae66 : netctrl.oe66 (.text:NC_SystemOpen)
                  8034f0e0    00000120     stk6_ppp_pppoe.ae66 : nimu.oe66 (.text:NIMUAddEthernetHeader)
                  8034f200    00000120     ti.drv.qmss.ae66 : qmss_acc.oe66 (.text:Qmss_disableAccumulator)
                  8034f320    00000120     stk6_ppp_pppoe.ae66 : raweth.oe66 (.text:RawEthRxPacket)
                  8034f440    00000120                         : raweth.oe66 (.text:RawEthTxPacket)
                  8034f560    00000120                         : sb.oe66 (.text:SBNew)
                  8034f680    00000120     netctrl.ae66 : netsrv.oe66 (.text:SPConfig)
                  8034f7a0    00000120                  : netsrv.oe66 (.text:SPService)
                  8034f8c0    00000120     stk6_ppp_pppoe.ae66 : sock6.oe66 (.text:Sock6Disconnect)
                  8034f9e0    00000120                         : sock6.oe66 (.text:Sock6Shutdown)
                  8034fb00    00000120                         : sockpcb.oe66 (.text:SockPcbFindRaw)
                  8034fc20    00000120                         : sock.oe66 (.text:SockShutdown)
                  8034fd40    00000120                         : tcp6prot.oe66 (.text:TCP6PrAttach)
                  8034fe60    00000120                         : tcpprot.oe66 (.text:TcpPrAttach)
                  8034ff80    00000120     nettool.ae66 : telnetd.oe66 (.text:TelnetOpen)
                  803500a0    00000120     stk6_ppp_pppoe.ae66 : rtable.oe66 (.text:_RtNodeInsert)
                  803501c0    00000120     rts6600_elf.lib : fclose.obj (.text:_closefile)
                  803502e0    00000120                     : _printfi.obj (.text:_ltostr)
                  80350400    00000120     os.ae66 : mem.oe66 (.text:_mmInit)
                  80350520    00000120     nettool.ae66 : daemon.oe66 (.text:dchild)
                  80350640    00000120     stk6_ppp_pppoe.ae66 : fileuser.oe66 (.text:fdOpenSession)
                  80350760    00000120     rts6600_elf.lib : fseek.obj (.text:fseek)
                  80350880    00000120     nettool.ae66 : http.oe66 (.text:httpOpen)
                  803509a0    00000120                  : httpsend.oe66 (.text:httpSendStatusLine)
                  80350ac0    00000120     stk6_ppp_pppoe.ae66 : lcp.oe66 (.text:lcpOpen)
                  80350be0    00000120                         : lcp.oe66 (.text:lcpReject)
                  80350d00    00000120     sysbios.lib : BIOS.obj (.text:rtsUnlock$0)
                  80350e20    00000120     stk6_ppp_pppoe.ae66 : socket.oe66 (.text:socket)
                  80350f40    00000120     ti.targets.rts6000.ae66 : LoggerBuf.oe66 (.text:xdc_runtime_LoggerBuf_setFilterLevel__F)
                  80351060    00000120                             : Text.oe66 (.text:xdc_runtime_Text_putLab__F)
                  80351180    00000100     nettool.ae66 : config.oe66 (.text:CfgNew)
                  80351280    00000100                  : config.oe66 (.text:CfgSetExecuteOrder)
                  80351380    00000100     rts6600_elf.lib : trgdrv.obj (.text:HOSTlseek)
                  80351480    00000100     stk6_ppp_pppoe.ae66 : igmp.oe66 (.text:IGMPTimer)
                  80351580    00000100                         : ipv6.oe66 (.text:IPv6GetSubnetMaskFromBits)
                  80351680    00000100                         : ipv6_frag.oe66 (.text:IPv6ReasmTimeout)
                  80351780    00000100                         : rtc.oe66 (.text:RTCMsg)
                  80351880    00000100                         : rawethsock.oe66 (.text:RawEthSockCheck)
                  80351980    00000100                         : route.oe66 (.text:RtRedirect)
                  80351a80    00000100                         : sockint.oe66 (.text:SockValidateRoute)
                  80351b80    00000100     nettool.ae66 : dhcpsm.oe66 (.text:StateSelecting)
                  80351c80    00000100     stk6_ppp_pppoe.ae66 : tcp6prot.oe66 (.text:TCP6PrInherit)
                  80351d80    00000100                         : tcp6time.oe66 (.text:TCP6XmitTimer)
                  80351e80    00000100                         : tcpprot.oe66 (.text:TcpPrInherit)
                  80351f80    00000100                         : tcptime.oe66 (.text:TcpXmitTimer)
                  80352080    00000100                         : rtable.oe66 (.text:_RtNodeRemove)
                  80352180    00000100     rts6600_elf.lib : _io_perm.obj (.text:_wrt_ok)
                  80352280    00000100     stk6_ppp_pppoe.ae66 : file.oe66 (.text:fdint_unlockfd)
                  80352380    00000100     sysbios.lib : BIOS.obj (.text:initDevice$44)
                  80352480    00000100     stk6_ppp_pppoe.ae66 : socket.oe66 (.text:listen)
                  80352580    00000100     os.ae66 : mem.oe66 (.text:mmFree)
                  80352680    00000100     stk6_ppp_pppoe.ae66 : nimuppp.oe66 (.text:pppAddClient)
                  80352780    00000100     sysbios.lib : BIOS.obj (.text:ti_sysbios_family_c64p_EventCombiner_dispatch__F)
                  80352880    00000100                 : BIOS.obj (.text:ti_sysbios_knl_Clock_startI__E)
                  80352980    00000100                 : BIOS.obj (.text:ti_sysbios_knl_Swi_restoreHwi__E)
                  80352a80    00000100     stk6_ppp_pppoe.ae66 : lliin.oe66 (.text:updateRtTable)
                  80352b80    00000100     ti.targets.rts6000.ae66 : Core-mem.oe66 (.text:xdc_runtime_Core_deleteObject__I)
                  80352c80    00000100                             : LoggerBuf.oe66 (.text:xdc_runtime_LoggerBuf_getFilterLevel__F)
                  80352d80    00000100                             : Startup.oe66 (.text:xdc_runtime_Startup_exec__F)
                  80352e80    00000100                             : Text.oe66 (.text:xdc_runtime_Text_putMod__F)
                  80352f80    00000100                             : Text.oe66 (.text:xdc_runtime_Text_visitRope2__I)
                  80353080    000000e0     stk6_ppp_pppoe.ae66 : bind6.oe66 (.text:Bind6GetLinkLocalAddress)
                  80353160    000000e0     nettool.ae66 : config.oe66 (.text:CfgGetEntryCnt)
                  80353240    000000e0                  : dhcpmain.oe66 (.text:DHCPClose)
                  80353320    000000e0     rts6600_elf.lib : trgdrv.obj (.text:HOSTopen)
                  80353400    000000e0     stk6_ppp_pppoe.ae66 : igmp.oe66 (.text:IGMPLeave)
                  803534e0    000000e0                         : ipv6_frag.oe66 (.text:IPv6FindFragQ)
                  803535c0    000000e0                         : lli6.oe66 (.text:LLI6Msg)
                  803536a0    000000e0                         : lli6.oe66 (.text:LLI6Update)
                  80353780    000000e0                         : mld.oe66 (.text:MLDFindMulticastNode)
                  80353860    000000e0                         : nimu.oe66 (.text:NIMUAllocateIndex)
                  80353940    000000e0                         : nimu.oe66 (.text:NIMUAllocateName)
                  80353a20    000000e0                         : node.oe66 (.text:NodeDeRef)
                  80353b00    000000e0                         : node.oe66 (.text:NodeNew)
                  80353be0    000000e0                         : node.oe66 (.text:NodeTreeNew)
                  80353cc0    000000e0                         : pbm.oe66 (.text:PBMQ_enq)
                  80353da0    000000e0                         : pbm.oe66 (.text:PBM_copy)
                  80353e80    000000e0                         : rawethsock.oe66 (.text:RawEthSockNotify)
                  80353f60    000000e0                         : rawethsock_pcb.oe66 (.text:RawEthSockPcbAttach)
                  80354040    000000e0                         : rawethsock.oe66 (.text:RawEthSockSend)
                  80354120    000000e0                         : route6.oe66 (.text:Route6Msg)
                  80354200    000000e0                         : route.oe66 (.text:RtDeRef)
                  803542e0    000000e0                         : route.oe66 (.text:RtRemove)
                  803543c0    000000e0                         : sb.oe66 (.text:SBReadNC)
                  803544a0    000000e0                         : sb.oe66 (.text:SBSetMax)
                  80354580    000000e0                         : sock6int.oe66 (.text:Sock6SpawnAbort)
                  80354660    000000e0                         : sock6int.oe66 (.text:Sock6ValidateRoute)
                  80354740    000000e0                         : sock.oe66 (.text:SockDisconnect)
                  80354820    000000e0                         : sockint.oe66 (.text:SockSpawnAbort)
                  80354900    000000e0                         : tcp6prot.oe66 (.text:TCP6PrDetach)
                  803549e0    000000e0                         : tcp6prot.oe66 (.text:TCP6PrDisconnect)
                  80354ac0    000000e0                         : tcp6prot.oe66 (.text:TCP6ValidateMetrics)
                  80354ba0    000000e0                         : tcpprot.oe66 (.text:TcpPrDetach)
                  80354c80    000000e0                         : tcpprot.oe66 (.text:TcpPrDisconnect)
                  80354d60    000000e0                         : tcpprot.oe66 (.text:TcpValidateMetrics)
                  80354e40    000000e0                         : timer.oe66 (.text:TimerListInsert)
                  80354f20    000000e0                         : udp.oe66 (.text:UdpChecksum)
                  80355000    000000e0                         : vlan.oe66 (.text:VLANDeinit)
                  803550e0    000000e0                         : vlan.oe66 (.text:VLANReceivePacket)
                  803551c0    000000e0     nettool.ae66 : config.oe66 (.text:_CfgEntryScan)
                  803552a0    000000e0     stk6_ppp_pppoe.ae66 : lli.oe66 (.text:_LLIExpListInsert)
                  80355380    000000e0                         : rtable.oe66 (.text:_RtExpListInsert)
                  80355460    000000e0     rts6600_elf.lib : divi.obj (.text:__divi)
                  80355540    000000e0                     : _printfi.obj (.text:_div)
                  80355620    000000e0                     : atoi.obj (.text:atoi)
                  80355700    000000e0                     : lowlev.obj (.text:close)
                  803557e0    000000e0                     : copy_zero_init.obj (.text:decompress:ZI:__TI_zero_init)
                  803558c0    000000e0     os.ae66 : efs.oe66 (.text:efs_internal_remove)
                  803559a0    000000e0     stk6_ppp_pppoe.ae66 : file.oe66 (.text:fdint_lockfd)
                  80355a80    000000e0     rts6600_elf.lib : fflush.obj (.text:fflush)
                  80355b60    000000e0     nettool.ae66 : httpclie.oe66 (.text:httpGetMimeBits)
                  80355c40    000000e0     os.ae66 : task.oe66 (.text:llExit)
                  80355d20    000000e0     rts6600_elf.lib : ltoa.obj (.text:ltoa)
                  80355e00    000000e0                     : memset.obj (.text:memset)
                  80355ee0    000000e0     os.ae66 : mem.oe66 (.text:mmBulkAlloc)
                  80355fc0    000000e0     stk6_ppp_pppoe.ae66 : nimuppp.oe66 (.text:pppFree)
                  803560a0    000000e0     rts6600_elf.lib : printf.obj (.text:printf)
                  80356180    000000e0     sysbios.lib : BIOS.obj (.text:ti_sysbios_family_c64p_Hwi_Instance_finalize__F)
                  80356260    000000e0                 : BIOS.obj (.text:ti_sysbios_family_c64p_Hwi_Instance_init__F)
                  80356340    000000e0     helloWorld_pe66.oe66 (.text:ti_sysbios_family_c64p_Hwi_Object__create__S)
                  80356420    000000e0     helloWorld_pe66.oe66 (.text:ti_sysbios_hal_Hwi_Object__create__S)
                  80356500    000000e0     sysbios.lib : BIOS.obj (.text:ti_sysbios_knl_Clock_start__E)
                  803565e0    000000e0                 : BIOS.obj (.text:ti_sysbios_timers_timer64_Timer_startup__E)
                  803566c0    000000e0     ti.targets.rts6000.ae66 : Error.oe66 (.text:xdc_runtime_Error_print__F)
                  803567a0    000000e0                             : Memory.oe66 (.text:xdc_runtime_Memory_alloc__F)
                  80356880    000000c0     rts6600_elf.lib : trgdrv.obj (.text:HOSTread)
                  80356940    000000c0                     : trgdrv.obj (.text:HOSTunlink)
                  80356a00    000000c0                     : trgdrv.obj (.text:HOSTwrite)
                  80356ac0    000000c0     stk6_ppp_pppoe.ae66 : icmpv6in.oe66 (.text:ICMPv6RecvDstUnreachable)
                  80356b80    000000c0                         : icmpv6in.oe66 (.text:ICMPv6SocketErrorInterface)
                  80356c40    000000c0                         : ipv6.oe66 (.text:IPv6Layer4ComputeChecksum)
                  80356d00    000000c0                         : lli.oe66 (.text:LLIGetValidTime)
                  80356dc0    000000c0                         : lli.oe66 (.text:LLIMsg)
                  80356e80    000000c0                         : mld.oe66 (.text:MLDCreateMulticastNode)
                  80356f40    000000c0                         : mld.oe66 (.text:MLDLeaveGroup)
                  80357000    000000c0                         : nimu.oe66 (.text:NIMUFindByName)
                  803570c0    000000c0     netctrl.ae66 : netsrv.oe66 (.text:NS_BootTask)
                  80357180    000000c0     stk6_ppp_pppoe.ae66 : node.oe66 (.text:NodeUpdatePL)
                  80357240    000000c0     nettool.ae66 : ipaddr.oe66 (.text:NtIfIdx2Ip)
                  80357300    000000c0     ti.drv.qmss.ae66 : qmss_drv.oe66 (.text:Qmss_setEoiVector)
                  803573c0    000000c0     stk6_ppp_pppoe.ae66 : route6.oe66 (.text:Rt6FindDefaultRouter)
                  80357480    000000c0                         : rtable.oe66 (.text:RtWalkBegin)
                  80357540    000000c0                         : sb6.oe66 (.text:SB6Flush)
                  80357600    000000c0                         : sb6.oe66 (.text:SB6SetMax)
                  803576c0    000000c0                         : sb.oe66 (.text:SBFlush)
                  80357780    000000c0                         : sock6.oe66 (.text:Sock6IntAbort)
                  80357840    000000c0                         : sock6pcb.oe66 (.text:Sock6PcbResolveChain)
                  80357900    000000c0                         : sock6pcb.oe66 (.text:Sock6PcbRtChange)
                  803579c0    000000c0                         : sock.oe66 (.text:SockIntAbort)
                  80357a80    000000c0                         : sockpcb.oe66 (.text:SockPcbRtChange)
                  80357b40    000000c0                         : tcp6prot.oe66 (.text:TCP6Close)
                  80357c00    000000c0                         : tcp6time.oe66 (.text:TCP6TimeoutSackRexmt)
                  80357cc0    000000c0     os.ae66 : task.oe66 (.text:TaskGetEnv)
                  80357d80    000000c0     stk6_ppp_pppoe.ae66 : tcp.oe66 (.text:TcpChecksum)
                  80357e40    000000c0                         : tcpprot.oe66 (.text:TcpClose)
                  80357f00    000000c0                         : tcptime.oe66 (.text:TcpTimeoutSackRexmt)
                  80357fc0    000000c0                         : bind6.oe66 (.text:_Bind6FindByHostInList)
                  80358080    000000c0                         : bind6.oe66 (.text:_Bind6FindByNetInList)
                  80358140    000000c0     rts6600_elf.lib : dtor_list.obj (.text:_Z11__TI_atexitPFYvPvES_S_)
                  80358200    000000c0                     : dtor_list.obj (.text:__cxa_finalize)
                  803582c0    000000c0                     : divu.obj (.text:__divu)
                  80358380    000000c0                     : remi.obj (.text:__remi)
                  80358440    000000c0                     : fflush.obj (.text:_doflush)
                  80358500    000000c0     ti.drv.cppi.ae66 : cppi_listlib.oe66 (.text:cppi_list_remove_node)
                  803585c0    000000c0     nettool.ae66 : dhcptags.oe66 (.text:dhcpOptionsClear)
                  80358680    000000c0     os.ae66 : efs.oe66 (.text:efs_fopen)
                  80358740    000000c0     rts6600_elf.lib : exit.obj (.text:exit)
                  80358800    000000c0     nettool.ae66 : httpsend.oe66 (.text:httpSendFullResponse)
                  803588c0    000000c0     os.ae66 : mem.oe66 (.text:mmZeroInit)
                  80358980    000000c0     stk6_ppp_pppoe.ae66 : nimuppp.oe66 (.text:pppAddIP)
                  80358a40    000000c0     sysbios.lib : BIOS.obj (.text:ti_sysbios_BIOS_errorRaiseHook__I)
                  80358b00    000000c0                 : BIOS.obj (.text:ti_sysbios_heaps_HeapMem_getStats__E)
                  80358bc0    000000c0                 : BIOS.obj (.text:ti_sysbios_knl_Clock_logTick__E)
                  80358c80    000000c0     helloWorld_pe66.oe66 (.text:ti_sysbios_knl_Task_Object__create__S)
                  80358d40    000000c0     sysbios.lib : BIOS.obj (.text:ti_sysbios_timers_timer64_Timer_stop__E)
                  80358e00    000000c0     udpHello.obj (.text)
                  80358ec0    000000c0     ti.targets.rts6000.ae66 : LoggerBuf.oe66 (.text:xdc_runtime_LoggerBuf_Instance_init__F)
                  80358f80    000000c0     helloWorld_pe66.oe66 (.text:xdc_runtime_LoggerBuf_Object__create__S)
                  80359040    000000c0     ti.targets.rts6000.ae66 : System.oe66 (.text:xdc_runtime_System_formatNum__I)
                  80359100    000000a0     nettool.ae66 : config.oe66 (.text:CfgEntryDeRef)
                  803591a0    000000a0                  : config.oe66 (.text:CfgEntryGetData)
                  80359240    000000a0                  : config.oe66 (.text:CfgGetImmediate)
                  803592e0    000000a0                  : telnetd.oe66 (.text:CmdWriteBytes)
                  80359380    000000a0                  : telnetd.oe66 (.text:CmdWriteCmd)
                  80359420    000000a0     ti.drv.cppi.ae66 : cppi_drv.oe66 (.text:Cppi_channelEnable)
                  803594c0    000000a0     stk6_ppp_pppoe.ae66 : file.oe66 (.text:FdSignalEvent)
                  80359560    000000a0     rts6600_elf.lib : trgdrv.obj (.text:HOSTclose)
                  80359600    000000a0     stk6_ppp_pppoe.ae66 : ipfrag.oe66 (.text:IPReasmFree)
                  803596a0    000000a0                         : ipfrag.oe66 (.text:IPReasmTimeout)
                  80359740    000000a0                         : ipv6.oe66 (.text:IPv6CompareAddress)
                  803597e0    000000a0                         : lliin.oe66 (.text:LLIValidateRoute)
                  80359880    000000a0                         : md5.oe66 (.text:MD5Final)
                  80359920    000000a0                         : nimu.oe66 (.text:NIMUShutdown)
                  803599c0    000000a0                         : nimu.oe66 (.text:NIMUUnregister)
                  80359a60    000000a0     nettool.ae66 : ipaddr.oe66 (.text:NtAddNetwork)
                  80359b00    000000a0     stk6_ppp_pppoe.ae66 : pbm.oe66 (.text:PBM_open)
                  80359ba0    000000a0                         : pipe.oe66 (.text:PipeCheck)
                  80359c40    000000a0     ti.drv.qmss.ae66 : qmss_drv.oe66 (.text:Qmss_queueClose)
                  80359ce0    000000a0                      : qmss_drv.oe66 (.text:Qmss_startCfg)
                  80359d80    000000a0     stk6_ppp_pppoe.ae66 : rtable.oe66 (.text:RouteMsg)
                  80359e20    000000a0                         : route.oe66 (.text:RtNew)
                  80359ec0    000000a0                         : sb6.oe66 (.text:SB6Free)
                  80359f60    000000a0                         : sb.oe66 (.text:SBFree)
                  8035a000    000000a0     os.ae66 : semaphore.oe66 (.text:SemCreate)
                  8035a0a0    000000a0     stk6_ppp_pppoe.ae66 : sock6pcb.oe66 (.text:Sock6CleanPcb)
                  8035a140    000000a0                         : sock6.oe66 (.text:Sock6GetName)
                  8035a1e0    000000a0                         : sock.oe66 (.text:SockBind)
                  8035a280    000000a0                         : sockpcb.oe66 (.text:SockCleanPcb)
                  8035a320    000000a0                         : sockpcb.oe66 (.text:SockPcbResolveChain)
                  8035a3c0    000000a0                         : tcp6prot.oe66 (.text:TCP6Drop)
                  8035a460    000000a0                         : tcp6prot.oe66 (.text:TCP6PrCtlError)
                  8035a500    000000a0                         : tcp6prot.oe66 (.text:TCP6PrSend)
                  8035a5a0    000000a0                         : tcp6prot.oe66 (.text:TCP6PrSendOOB)
                  8035a640    000000a0     os.ae66 : task.oe66 (.text:TaskCreate)
                  8035a6e0    000000a0     stk6_ppp_pppoe.ae66 : tcpprot.oe66 (.text:TcpDrop)
                  8035a780    000000a0                         : tcpprot.oe66 (.text:TcpPrCtlError)
                  8035a820    000000a0                         : tcpprot.oe66 (.text:TcpPrSend)
                  8035a8c0    000000a0                         : tcpprot.oe66 (.text:TcpPrSendOOB)
                  8035a960    000000a0                         : timer.oe66 (.text:TimerNew)
                  8035aa00    000000a0     nettool.ae66 : config.oe66 (.text:_CfgRelease)
                  8035aaa0    000000a0     stk6_ppp_pppoe.ae66 : lli.oe66 (.text:_LLITimeoutFlush)
                  8035ab40    000000a0     rts6600_elf.lib : remu.obj (.text:__remu)
                  8035abe0    000000a0     boot.ae66 : boot.oe66 (.text:_c_int00)
                  8035ac80    000000a0     rts6600_elf.lib : fopen.obj (.text:_cleanup)
                  8035ad20    000000a0                     : _printfi.obj (.text:_ecpy)
                  8035adc0    000000a0                     : _printfi.obj (.text:_fcpy)
                  8035ae60    000000a0                     : _printfi.obj (.text:_pconv_f)
                  8035af00    000000a0     sysbios.lib : c64p_Hwi_asm.obj (.text:_ti_sysbios_family_c64p_Hwi_plug__E)
                  8035afa0    000000a0     stk6_ppp_pppoe.ae66 : auth.oe66 (.text:authStart)
                  8035b040    000000a0     ti.drv.cppi.ae66 : cppi_heap.oe66 (.text:cppi_internal_heap_malloc)
                  8035b0e0    000000a0                      : cppi_listlib.oe66 (.text:cppi_list_cat)
                  8035b180    000000a0     nettool.ae66 : dhcpbild.oe66 (.text:dhcpBuildDecline)
                  8035b220    000000a0                  : dhcpsm.oe66 (.text:dhcpIPRemove)
                  8035b2c0    000000a0     os.ae66 : efs.oe66 (.text:efs_filesend)
                  8035b360    000000a0     stk6_ppp_pppoe.ae66 : fileuser.oe66 (.text:fdCloseSession)
                  8035b400    000000a0     rts6600_elf.lib : lowlev.obj (.text:finddevice)
                  8035b4a0    000000a0     stk6_ppp_pppoe.ae66 : lcp.oe66 (.text:lcpInit)
                  8035b540    000000a0                         : lcp.oe66 (.text:lcpSendTerm)
                  8035b5e0    000000a0     hal_timer_bios.ae66 : lltimer.oe66 (.text:llTimerTick)
                  8035b680    000000a0     rts6600_elf.lib : lowlev.obj (.text:lseek)
                  8035b720    000000a0                     : memcpy64.obj (.text:memcpy)
                  8035b7c0    000000a0     os.ae66 : mem.oe66 (.text:mmBulkFree)
                  8035b860    000000a0             : mem.oe66 (.text:mmInitPage)
                  8035b900    000000a0     ti.drv.pa.ae66 : pa.oe66 (.text:pa_format_fcmd_header)
                  8035b9a0    000000a0                    : pa.oe66 (.text:pa_pdsp_run)
                  8035ba40    000000a0     os.ae66 : ossys.oe66 (.text:stricmp)
                  8035bae0    000000a0     rts6600_elf.lib : strstr.obj (.text:strstr)
                  8035bb80    000000a0     sysbios.lib : BIOS.obj (.text:ti_sysbios_heaps_HeapMem_init__I)
                  8035bc20    000000a0     rts6600_elf.lib : lowlev.obj (.text:write)
                  8035bcc0    000000a0     ti.targets.rts6000.ae66 : Assert.oe66 (.text:xdc_runtime_Assert_raise__I)
                  8035bd60    000000a0                             : LoggerBuf.oe66 (.text:xdc_runtime_LoggerBuf_Module_startup__F)
                  8035be00    000000a0     helloWorld_pe66.oe66 (.text:xdc_runtime_LoggerBuf_write8__E)
                  8035bea0    00000080     ti.drv.cppi.ae66 : cppi_drv.oe66 (.text:Cppi_setCpdmaLoopback)
                  8035bf20    00000080     stk6_ppp_pppoe.ae66 : md5.oe66 (.text:Decode)
                  8035bfa0    00000080                         : icmp.oe66 (.text:ICMPChecksum)
                  8035c020    00000080                         : icmpv6in.oe66 (.text:ICMPv6RecvParamProblem)
                  8035c0a0    00000080                         : icmpv6_ndisc.oe66 (.text:ICMPv6RecvRS)
                  8035c120    00000080                         : icmpv6in.oe66 (.text:ICMPv6RecvTimeExceeded)
                  8035c1a0    00000080                         : ipv6out.oe66 (.text:IPv6GetRoute)
                  8035c220    00000080                         : lli6.oe66 (.text:LLI6Free)
                  8035c2a0    00000080                         : lli6.oe66 (.text:LLI6IsRouterStatMachine)
                  8035c320    00000080     netctrl.ae66 : netctrl.oe66 (.text:NC_SystemClose)
                  8035c3a0    00000080     stk6_ppp_pppoe.ae66 : nimu.oe66 (.text:NIMUInit)
                  8035c420    00000080                         : pbm.oe66 (.text:PBMQ_deq)
                  8035c4a0    00000080                         : nimuppp.oe66 (.text:PPPSend)
                  8035c520    00000080     ti.drv.pa.ae66 : painit.oe66 (.text:Pa_getBufferReq)
                  8035c5a0    00000080     stk6_ppp_pppoe.ae66 : pipe.oe66 (.text:PipeClose)
                  8035c620    00000080     ti.drv.qmss.ae66 : qmss_drv.oe66 (.text:Qmss_getMemRegQueueHandle)
                  8035c6a0    00000080                      : qmss_drv.oe66 (.text:Qmss_queueOpen)
                  8035c720    00000080     stk6_ppp_pppoe.ae66 : rawethsock.oe66 (.text:RawEthSockClose)
                  8035c7a0    00000080                         : rawethsock_pcb.oe66 (.text:RawEthSockPcbDetach)
                  8035c820    00000080                         : route6.oe66 (.text:Rt6Update)
                  8035c8a0    00000080                         : route.oe66 (.text:RtSetFailure)
                  8035c920    00000080                         : route.oe66 (.text:RtSetTimeout)
                  8035c9a0    00000080                         : sock6.oe66 (.text:Sock6Bind)
                  8035ca20    00000080                         : sock6pcb.oe66 (.text:Sock6PcbCleanup)
                  8035caa0    00000080                         : sock.oe66 (.text:SockGetName)
                  8035cb20    00000080                         : sockpcb.oe66 (.text:SockPcbCleanup)
                  8035cba0    00000080                         : sockpcb.oe66 (.text:SockPcbDetach)
                  8035cc20    00000080                         : tcp6prot.oe66 (.text:TCP6PrListen)
                  8035cca0    00000080     os.ae66 : task.oe66 (.text:TaskSetEnv)
                  8035cd20    00000080     stk6_ppp_pppoe.ae66 : tcpprot.oe66 (.text:TcpPrListen)
                  8035cda0    00000080                         : timer.oe66 (.text:TimerHSTick)
                  8035ce20    00000080                         : timer.oe66 (.text:TimerListRemove)
                  8035cea0    00000080     nettool.ae66 : config.oe66 (.text:_CfgAcquire)
                  8035cf20    00000080     stk6_ppp_pppoe.ae66 : lli.oe66 (.text:_LLIExpListRemove)
                  8035cfa0    00000080                         : rtc.oe66 (.text:_RTCSendRtAdv)
                  8035d020    00000080                         : rtable.oe66 (.text:_RtExpListRemove)
                  8035d0a0    00000080     rts6600_elf.lib : fixfu.obj (.text:__c6xabi_fixfu)
                  8035d120    00000080                     : llshift.obj (.text:__c6xabi_llshl)
                  8035d1a0    00000080     sysbios.lib : c62_TaskSupport_asm.obj (.text:_ti_sysbios_family_c62_TaskSupport_swap__E)
                  8035d220    00000080     ti.drv.cppi.ae66 : cppi_heap.oe66 (.text:cppi_internal_heap_cache_begin)
                  8035d2a0    00000080                      : cppi_listlib.oe66 (.text:cppi_list_remove)
                  8035d320    00000080     nettool.ae66 : dhcpsock.oe66 (.text:dhcpSocketClose)
                  8035d3a0    00000080     os.ae66 : efs.oe66 (.text:efs_fclose)
                  8035d420    00000080             : efs.oe66 (.text:efs_findfile)
                  8035d4a0    00000080     stk6_ppp_pppoe.ae66 : file.oe66 (.text:fdint_waitevent)
                  8035d520    00000080     nettool.ae66 : httpsend.oe66 (.text:httpSendEntityLength)
                  8035d5a0    00000080                  : httpsend.oe66 (.text:httpSendErrorResponse)
                  8035d620    00000080     hal_timer_bios.ae66 : lltimer.oe66 (.text:llTimerGetTime)
                  8035d6a0    00000080     helloWorld_pe66.oe66 (.text:malloc)
                  8035d720    00000080     ti.drv.pa.ae66 : pa.oe66 (.text:pa_uint8_match)
                  8035d7a0    00000080     rts6600_elf.lib : trgmsg.obj (.text:readmsg)
                  8035d820    00000080     nettool.ae66 : httpsend.oe66 (.text:strcat)
                  8035d8a0    00000080     rts6600_elf.lib : strncpy.obj (.text:strncpy)
                  8035d920    00000080     ti.drv.pa.ae66 : pa.oe66 (.text:swizFcmd)
                  8035d9a0    00000080     ti.platform.evm6678l.ae66 : evm66x_i2c.obj (.text)
                  8035da20    00000080     sysbios.lib : BIOS.obj (.text:ti_sysbios_family_c62_TaskSupport_start__E)
                  8035daa0    00000080                 : BIOS.obj (.text:ti_sysbios_family_c64p_Exception_Module_startup__F)
                  8035db20    00000080                 : BIOS.obj (.text:ti_sysbios_family_c64p_Hwi_eventMap__E)
                  8035dba0    00000080                 : BIOS.obj (.text:ti_sysbios_family_c66_Cache_invL1pAll__E)
                  8035dc20    00000080                 : BIOS.obj (.text:ti_sysbios_family_c66_tci66xx_CpIntc_getEventId__F)
                  8035dca0    00000080                 : BIOS.obj (.text:ti_sysbios_family_c66_tci66xx_CpIntc_mapSysIntToHostInt__F)
                  8035dd20    00000080     helloWorld_pe66.oe66 (.text:ti_sysbios_gates_GateHwi_Object__create__S)
                  8035dda0    00000080     helloWorld_pe66.oe66 (.text:ti_sysbios_gates_GateMutex_Object__create__S)
                  8035de20    00000080     sysbios.lib : BIOS.obj (.text:ti_sysbios_hal_Hwi_checkStack:ti_sysbios_hal_Hwi_checkStack)
                  8035dea0    00000080     helloWorld_pe66.oe66 (.text:ti_sysbios_heaps_HeapMem_Object__create__S)
                  8035df20    00000080     sysbios.lib : BIOS.obj (.text:ti_sysbios_knl_Clock_Module_startup__F)
                  8035dfa0    00000080     helloWorld_pe66.oe66 (.text:ti_sysbios_knl_Clock_Object__create__S)
                  8035e020    00000080     sysbios.lib : BIOS.obj (.text:ti_sysbios_knl_Clock_getTicks__E)
                  8035e0a0    00000080                 : BIOS.obj (.text:ti_sysbios_knl_Idle_loop__E)
                  8035e120    00000080     helloWorld_pe66.oe66 (.text:ti_sysbios_knl_Queue_Object__create__S)
                  8035e1a0    00000080     helloWorld_pe66.oe66 (.text:ti_sysbios_knl_Semaphore_Object__create__S)
                  8035e220    00000080     sysbios.lib : BIOS.obj (.text:ti_sysbios_knl_Semaphore_pendTimeout__I)
                  8035e2a0    00000080                 : BIOS.obj (.text:ti_sysbios_knl_Swi_startup__E)
                  8035e320    00000080                 : BIOS.obj (.text:ti_sysbios_knl_Task_deleteTerminatedTasksFunc__I)
                  8035e3a0    00000080                 : BIOS.obj (.text:ti_sysbios_knl_Task_restore__E)
                  8035e420    00000080                 : BIOS.obj (.text:ti_sysbios_timers_timer64_Timer_getCount__E)
                  8035e4a0    00000080                 : BIOS.obj (.text:ti_sysbios_timers_timer64_Timer_getPeriod__E)
                  8035e520    00000080     rts6600_elf.lib : lowlev.obj (.text:unlink)
                  8035e5a0    00000080     ti.targets.rts6000.ae66 : Core-label.oe66 (.text:xdc_runtime_Core_assignLabel__I)
                  8035e620    00000080                             : Core-params.oe66 (.text:xdc_runtime_Core_assignParams__I)
                  8035e6a0    00000080                             : LoggerBuf.oe66 (.text:xdc_runtime_LoggerBuf_filterOutEvent__I)
                  8035e720    00000080                             : System.oe66 (.text:xdc_runtime_System_atexit__F)
                  8035e7a0    00000080                             : System.oe66 (.text:xdc_runtime_System_rtsExit__I)
                  8035e820    00000080                             : Text.oe66 (.text:xdc_runtime_Text_printVisFxn__I)
                  8035e8a0    00000080                             : Text.oe66 (.text:xdc_runtime_Text_xprintf__I)
                  8035e920    00000060     ADS1298_drv.obj (.text)
                  8035e980    00000060     stk6_ppp_pppoe.ae66 : bind6.oe66 (.text:Bind6FindByIF)
                  8035e9e0    00000060                         : bind6.oe66 (.text:Bind6IF2IPHost)
                  8035ea40    00000060                         : bind.oe66 (.text:BindFindByHost)
                  8035eaa0    00000060                         : bind.oe66 (.text:BindFindByIF)
                  8035eb00    00000060                         : bind.oe66 (.text:BindFindByNet)
                  8035eb60    00000060                         : bind.oe66 (.text:BindGetIFByDBCast)
                  8035ebc0    00000060                         : bind.oe66 (.text:BindIF2IPHost)
                  8035ec20    00000060     nettool.ae66 : config.oe66 (.text:CfgEntryInfo)
                  8035ec80    00000060                  : config.oe66 (.text:CfgSetService)
                  8035ece0    00000060     stk6_ppp_pppoe.ae66 : md5.oe66 (.text:Encode)
                  8035ed40    00000060                         : exec.oe66 (.text:ExecBroadcast)
                  8035eda0    00000060                         : igmp.oe66 (.text:IGMPTestGroup)
                  8035ee00    00000060                         : ip.oe66 (.text:IPChecksum)
                  8035ee60    00000060                         : lli.oe66 (.text:LLIFree)
                  8035eec0    00000060                         : nimu.oe66 (.text:NIMUAddHeader)
                  8035ef20    00000060                         : nimu.oe66 (.text:NIMUCreatePacket)
                  8035ef80    00000060                         : nimu.oe66 (.text:NIMUFindByIndex)
                  8035efe0    00000060                         : nimu.oe66 (.text:NIMUPacketService)
                  8035f040    00000060                         : nimu.oe66 (.text:NIMUPacketServiceCheck)
                  8035f0a0    00000060                         : nimu.oe66 (.text:NIMUSendPacket)
                  8035f100    00000060     netctrl.ae66 : netsrv.oe66 (.text:NS_PreBoot)
                  8035f160    00000060     stk6_ppp_pppoe.ae66 : nimuppp.oe66 (.text:PPPStart)
                  8035f1c0    00000060                         : rtc.oe66 (.text:RTCAddHook)
                  8035f220    00000060                         : rtc.oe66 (.text:RTCRemoveHook)
                  8035f280    00000060                         : rawethsock_pcb.oe66 (.text:RawEthSockPcbCleanup)
                  8035f2e0    00000060                         : rawethsock_pcb.oe66 (.text:RawEthSockPcbFind)
                  8035f340    00000060                         : route6.oe66 (.text:Rt6GetNetworkAddr)
                  8035f3a0    00000060                         : rtable.oe66 (.text:RtWalkEnd)
                  8035f400    00000060     netctrl.ae66 : netsrv.oe66 (.text:ServiceCallback)
                  8035f460    00000060     stk6_ppp_pppoe.ae66 : sock6pcb.oe66 (.text:Sock6PcbDetach)
                  8035f4c0    00000060                         : sock6prot.oe66 (.text:Sock6PrCtlError)
                  8035f520    00000060                         : sock6prot.oe66 (.text:Sock6PrDetach)
                  8035f580    00000060                         : sockprot.oe66 (.text:SockPrCtlError)
                  8035f5e0    00000060                         : sockprot.oe66 (.text:SockPrDetach)
                  8035f640    00000060                         : tcp6prot.oe66 (.text:TCP6PrConnect)
                  8035f6a0    00000060                         : tcp6time.oe66 (.text:TCP6SetPersist)
                  8035f700    00000060                         : tcp6time.oe66 (.text:TCP6TimeoutPersist)
                  8035f760    00000060                         : tcpprot.oe66 (.text:TcpPrConnect)
                  8035f7c0    00000060                         : tcptime.oe66 (.text:TcpSetPersist)
                  8035f820    00000060                         : tcptime.oe66 (.text:TcpTimeoutPersist)
                  8035f880    00000060                         : vlan.oe66 (.text:VLANFindNode)
                  8035f8e0    00000060                         : vlan.oe66 (.text:VLANFindSourceInterface)
                  8035f940    00000060                         : vlan.oe66 (.text:VLANInit)
                  8035f9a0    00000060     nettool.ae66 : config.oe66 (.text:_CfgEntryProcess)
                  8035fa00    00000060     rts6600_elf.lib : frcmpyd_div.obj (.text:__c6xabi_frcmpyd_div)
                  8035fa60    00000060                     : llshift.obj (.text:__c6xabi_llshru)
                  8035fac0    00000060                     : imath64.obj (.text:_subcull)
                  8035fb20    00000060     ti.drv.cppi.ae66 : cppi_listlib.oe66 (.text:cppi_list_add)
                  8035fb80    00000060                      : cppi_listlib.oe66 (.text:cppi_list_cache_invalidate)
                  8035fbe0    00000060     nettool.ae66 : dhcpbild.oe66 (.text:dhcpBuildDiscover)
                  8035fc40    00000060                  : dhcpsock.oe66 (.text:dhcpPacketReceive)
                  8035fca0    00000060                  : dhcpsock.oe66 (.text:dhcpPacketSend)
                  8035fd00    00000060     stk6_ppp_pppoe.ae66 : fileuser.oe66 (.text:fdSelectAbort)
                  8035fd60    00000060                         : file.oe66 (.text:fdint_clearevent)
                  8035fdc0    00000060                         : file.oe66 (.text:fdint_getfdt)
                  8035fe20    00000060                         : file.oe66 (.text:fdint_setevent)
                  8035fe80    00000060                         : fileuser.oe66 (.text:fdsetTestEntry)
                  8035fee0    00000060     nettool.ae66 : httpsend.oe66 (.text:httpSendClientStr)
                  8035ff40    00000060     stk6_ppp_pppoe.ae66 : ipcp.oe66 (.text:ipcpInit)
                  8035ffa0    00000060                         : ipcp.oe66 (.text:ipcpStart)
                  80360000    00000060                         : lcp.oe66 (.text:lcpClose)
                  80360060    00000060                         : listlib.oe66 (.text:list_cat)
                  803600c0    00000060                         : listlib.oe66 (.text:list_remove_node)
                  80360120    00000060     rts6600_elf.lib : memccpy.obj (.text:memccpy)
                  80360180    00000060     os.ae66 : mem.oe66 (.text:mmUnInitPage)
                  803601e0    00000060     ti.drv.pa.ae66 : painit.oe66 (.text:pa_init_global_cfg)
                  80360240    00000060                    : pa.oe66 (.text:pa_uint8_zero)
                  803602a0    00000060     stk6_ppp_pppoe.ae66 : nimupppoe.oe66 (.text:pppoeInput)
                  80360300    00000060                         : socket.oe66 (.text:recvncfree)
                  80360360    00000060     rts6600_elf.lib : sprintf.obj (.text:sprintf)
                  803603c0    00000060     nettool.ae66 : httpsend.oe66 (.text:strcpy)
                  80360420    00000060     rts6600_elf.lib : strcpy.obj (.text:strcpy)
                  80360480    00000060     helloWorld_pe66.oe66 (.text:ti_ndk_config_Global_stackThread)
                  803604e0    00000060     helloWorld_pe66.oe66 (.text:ti_sysbios_BIOS_exitFunc__I)
                  80360540    00000060     sysbios.lib : BIOS.obj (.text:ti_sysbios_BIOS_registerRTSLock__I)
                  803605a0    00000060                 : BIOS.obj (.text:ti_sysbios_family_c64p_EventCombiner_Module_startup__F)
                  80360600    00000060                 : BIOS.obj (.text:ti_sysbios_family_c64p_EventCombiner_dispatchPlug__F)
                  80360660    00000060                 : BIOS.obj (.text:ti_sysbios_family_c64p_EventCombiner_unused__F)
                  803606c0    00000060                 : BIOS.obj (.text:ti_sysbios_family_c64p_Hwi_restoreInterrupt__E)
                  80360720    00000060                 : BIOS.obj (.text:ti_sysbios_family_c66_tci66xx_CpIntc_unused__F)
                  80360780    00000060                 : BIOS.obj (.text:ti_sysbios_gates_GateMutex_Instance_init__F)
                  803607e0    00000060                 : BIOS.obj (.text:ti_sysbios_hal_Hwi_Instance_init__F)
                  80360840    00000060                 : BIOS.obj (.text:ti_sysbios_hal_Hwi_initStack:ti_sysbios_hal_Hwi_initStack)
                  803608a0    00000060     helloWorld_pe66.oe66 (.text:ti_sysbios_heaps_HeapBuf_Object__get__S)
                  80360900    00000060     helloWorld_pe66.oe66 (.text:ti_sysbios_heaps_HeapMem_Object__get__S)
                  80360960    00000060     helloWorld_pe66.oe66 (.text:ti_sysbios_knl_Clock_doTick__I)
                  803609c0    00000060     helloWorld_pe66.oe66 (.text:ti_sysbios_knl_Queue_Object__get__S)
                  80360a20    00000060     sysbios.lib : BIOS.obj (.text:ti_sysbios_knl_Swi_Module_startup__F)
                  80360a80    00000060     helloWorld_pe66.oe66 (.text:ti_sysbios_knl_Swi_Object__get__S)
                  80360ae0    00000060     helloWorld_pe66.oe66 (.text:ti_sysbios_knl_Task_Object__get__S)
                  80360b40    00000060     sysbios.lib : BIOS.obj (.text:ti_sysbios_knl_Task_allBlockedFunction__I)
                  80360ba0    00000060                 : BIOS.obj (.text:ti_sysbios_knl_Task_enter__I)
                  80360c00    00000060     rts6600_elf.lib : vsprintf.obj (.text:vsprintf)
                  80360c60    00000060                     : trgmsg.obj (.text:writemsg)
                  80360cc0    00000060     helloWorld_pe66.oe66 (.text:xdc_runtime_LoggerBuf_Object__get__S)
                  80360d20    00000060     ti.targets.rts6000.ae66 : Memory.oe66 (.text:xdc_runtime_Memory_calloc__F)
                  80360d80    00000060                             : SysStd.oe66 (.text:xdc_runtime_SysStd_abort__F)
                  80360de0    00000060                             : System.oe66 (.text:xdc_runtime_System_avprintf__F)
                  80360e40    00000060                             : System.oe66 (.text:xdc_runtime_System_vprintf__F)
                  80360ea0    00000060                             : Text.oe66 (.text:xdc_runtime_Text_cordText__F)
                  80360f00    00000040     stk6_ppp_pppoe.ae66 : bind6.oe66 (.text:Bind6FindByHost)
                  80360f40    00000040                         : bind6.oe66 (.text:Bind6FindByNet)
                  80360f80    00000040                         : bind.oe66 (.text:BindGetIP)
                  80360fc0    00000040                         : exec.oe66 (.text:ExecClose)
                  80361000    00000040                         : exec.oe66 (.text:ExecTimer)
                  80361040    00000040                         : ipv6.oe66 (.text:IPv6IsLinkLocal)
                  80361080    00000040                         : ipv6.oe66 (.text:IPv6IsMulticast)
                  803610c0    00000040                         : lli6.oe66 (.text:LLI6IsValid)
                  80361100    00000040                         : md5.oe66 (.text:MD5Init)
                  80361140    00000040                         : mld.oe66 (.text:MLDTestGroup)
                  80361180    00000040     netctrl.ae66 : netctrl.oe66 (.text:NC_BootComplete)
                  803611c0    00000040     os.ae66 : task.oe66 (.text:NDK_hookCreate)
                  80361200    00000040     nettool.ae66 : ipaddr.oe66 (.text:NtRemoveNetwork)
                  80361240    00000040     ti.drv.qmss.ae66 : qmss_drv.oe66 (.text:Qmss_ackInterrupt)
                  80361280    00000040                      : qmss_drv.oe66 (.text:Qmss_getMemRegDescSize)
                  803612c0    00000040     stk6_ppp_pppoe.ae66 : rawethsock_pcb.oe66 (.text:RawEthSockPcbInit)
                  80361300    00000040     nettool.ae66 : ipaddr.oe66 (.text:RouteHook)
                  80361340    00000040     stk6_ppp_pppoe.ae66 : route6.oe66 (.text:Rt6IsDefaultRoute)
                  80361380    00000040                         : sock6pcb.oe66 (.text:Sock6PcbAttach)
                  803613c0    00000040                         : sock6int.oe66 (.text:Sock6SetOOBMark)
                  80361400    00000040                         : sockpcb.oe66 (.text:SockPcbAttach)
                  80361440    00000040                         : sockint.oe66 (.text:SockSetOOBMark)
                  80361480    00000040                         : tcp6.oe66 (.text:TCP6TimeoutRemove)
                  803614c0    00000040                         : tcp6time.oe66 (.text:TCP6TimeoutWait2)
                  80361500    00000040     os.ae66 : task.oe66 (.text:TaskDestroy)
                  80361540    00000040     stk6_ppp_pppoe.ae66 : tcp.oe66 (.text:TcpTimeoutRemove)
                  80361580    00000040                         : tcptime.oe66 (.text:TcpTimeoutWait2)
                  803615c0    00000040     rts6600_elf.lib : isinf.obj (.text:__c6xabi_isinf)
                  80361600    00000040                     : _printfi.obj (.text:__c6xabi_isnan)
                  80361640    00000040                     : strasg.obj (.text:__strasgi_64plus)
                  80361680    00000040                     : args_main.obj (.text:_args_main)
                  803616c0    00000040     hal_timer_bios.ae66 : lltimer.oe66 (.text:_llTimerInit)
                  80361700    00000040     rts6600_elf.lib : sprintf.obj (.text:_outs)
                  80361740    00000040                     : vsprintf.obj (.text:_outs)
                  80361780    00000040     sysbios.lib : c62_TaskSupport_asm.obj (.text:_ti_sysbios_family_c62_TaskSupport_buildTaskStack)
                  803617c0    00000040                 : c64p_Hwi_asm_switch.obj (.text:_ti_sysbios_family_xxx_Hwi_switchToIsrStack)
                  80361800    00000040     os.ae66 : efs.oe66 (.text:efs_loadfunction)
                  80361840    00000040     stk6_ppp_pppoe.ae66 : file.oe66 (.text:fdint_freefdt)
                  80361880    00000040     helloWorld_pe66.oe66 (.text:free)
                  803618c0    00000040     nettool.ae66 : inetaddr.oe66 (.text:inet_addr)
                  80361900    00000040     stk6_ppp_pppoe.ae66 : listlib.oe66 (.text:list_add)
                  80361940    00000040                         : listlib.oe66 (.text:list_remove)
                  80361980    00000040     ti.drv.pa.ae66 : pa.oe66 (.text:pa_mac_match)
                  803619c0    00000040     rts6600_elf.lib : fputs.obj (.text:puts)
                  80361a00    00000040     sysbios.lib : BIOS.obj (.text:rtsLock$0)
                  80361a40    00000040     rts6600_elf.lib : strlen.obj (.text:strlen)
                  80361a80    00000040     helloWorld_pe66.oe66 (.text:ti_sysbios_BIOS_startFunc__I)
                  80361ac0    00000040     sysbios.lib : BIOS.obj (.text:ti_sysbios_BIOS_start__E)
                  80361b00    00000040                 : BIOS.obj (.text:ti_sysbios_family_c64p_EventCombiner_disableEvent__F)
                  80361b40    00000040     helloWorld_pe66.oe66 (.text:ti_sysbios_family_c64p_EventCombiner_dispatchPlug__E)
                  80361b80    00000040     sysbios.lib : BIOS.obj (.text:ti_sysbios_family_c64p_EventCombiner_enableEvent__F)
                  80361bc0    00000040     helloWorld_pe66.oe66 (.text:ti_sysbios_family_c64p_Hwi_Module__startupDone__F)
                  80361c00    00000040     helloWorld_pe66.oe66 (.text:ti_sysbios_family_c64p_Hwi_Object__delete__S)
                  80361c40    00000040     sysbios.lib : BIOS.obj (.text:ti_sysbios_family_c64p_Hwi_disableInterrupt__E)
                  80361c80    00000040                 : BIOS.obj (.text:ti_sysbios_family_c64p_Hwi_enableInterrupt__E)
                  80361cc0    00000040                 : BIOS.obj (.text:ti_sysbios_family_c66_tci66xx_CpIntc_disableAllHostInts__F)
                  80361d00    00000040     helloWorld_pe66.oe66 (.text:ti_sysbios_family_c66_tci66xx_CpIntc_dispatchPlug__E)
                  80361d40    00000040     sysbios.lib : BIOS.obj (.text:ti_sysbios_family_c66_tci66xx_CpIntc_dispatchPlug__F)
                  80361d80    00000040                 : BIOS.obj (.text:ti_sysbios_family_c66_tci66xx_CpIntc_enableAllHostInts__F)
                  80361dc0    00000040     helloWorld_pe66.oe66 (.text:ti_sysbios_gates_GateHwi_Handle__label__S)
                  80361e00    00000040     helloWorld_pe66.oe66 (.text:ti_sysbios_gates_GateHwi_Object__delete__S)
                  80361e40    00000040     helloWorld_pe66.oe66 (.text:ti_sysbios_gates_GateMutex_Handle__label__S)
                  80361e80    00000040     sysbios.lib : BIOS.obj (.text:ti_sysbios_gates_GateMutex_Instance_finalize__F)
                  80361ec0    00000040     helloWorld_pe66.oe66 (.text:ti_sysbios_gates_GateMutex_Object__delete__S)
                  80361f00    00000040     sysbios.lib : BIOS.obj (.text:ti_sysbios_gates_GateMutex_leave__E)
                  80361f40    00000040     helloWorld_pe66.oe66 (.text:ti_sysbios_hal_Cache_CacheProxy_wbInv__E)
                  80361f80    00000040     helloWorld_pe66.oe66 (.text:ti_sysbios_hal_Hwi_HwiProxy_Object__create__S)
                  80361fc0    00000040     sysbios.lib : BIOS.obj (.text:ti_sysbios_hal_Hwi_Instance_finalize__F)
                  80362000    00000040     helloWorld_pe66.oe66 (.text:ti_sysbios_hal_Hwi_Params__init__S)
                  80362040    00000040     helloWorld_pe66.oe66 (.text:ti_sysbios_hal_Timer_Module__startupDone__F)
                  80362080    00000040     helloWorld_pe66.oe66 (.text:ti_sysbios_heaps_HeapMem_Handle__label__S)
                  803620c0    00000040     helloWorld_pe66.oe66 (.text:ti_sysbios_heaps_HeapMem_Object__delete__S)
                  80362100    00000040     helloWorld_pe66.oe66 (.text:ti_sysbios_knl_Clock_Object__destruct__S)
                  80362140    00000040     helloWorld_pe66.oe66 (.text:ti_sysbios_knl_Clock_Params__init__S)
                  80362180    00000040     helloWorld_pe66.oe66 (.text:ti_sysbios_knl_Clock_create)
                  803621c0    00000040     helloWorld_pe66.oe66 (.text:ti_sysbios_knl_Queue_Object__destruct__S)
                  80362200    00000040     sysbios.lib : BIOS.obj (.text:ti_sysbios_knl_Semaphore_Instance_finalize__F)
                  80362240    00000040     helloWorld_pe66.oe66 (.text:ti_sysbios_knl_Semaphore_Object__delete__S)
                  80362280    00000040     helloWorld_pe66.oe66 (.text:ti_sysbios_knl_Semaphore_Object__destruct__S)
                  803622c0    00000040     helloWorld_pe66.oe66 (.text:ti_sysbios_knl_Task_Object__delete__S)
                  80362300    00000040     helloWorld_pe66.oe66 (.text:ti_sysbios_knl_Task_Object__first__S)
                  80362340    00000040     helloWorld_pe66.oe66 (.text:ti_sysbios_knl_Task_Object__next__S)
                  80362380    00000040     helloWorld_pe66.oe66 (.text:ti_sysbios_knl_Task_Params__init__S)
                  803623c0    00000040     sysbios.lib : BIOS.obj (.text:ti_sysbios_knl_Task_sleepTimeout__I)
                  80362400    00000040     helloWorld_pe66.oe66 (.text:ti_sysbios_timers_timer64_Timer_Module__startupDone__F)
                  80362440    00000040     ti.targets.rts6000.ae66 : Error.oe66 (.text:xdc_runtime_Error_check__F)
                  80362480    00000040                             : Error.oe66 (.text:xdc_runtime_Error_init__F)
                  803624c0    00000040     helloWorld_pe66.oe66 (.text:xdc_runtime_Error_raiseX__E)
                  80362500    00000040     ti.targets.rts6000.ae66 : Gate.oe66 (.text:xdc_runtime_Gate_leaveSystem__F)
                  80362540    00000040     helloWorld_pe66.oe66 (.text:xdc_runtime_IHeap_alloc)
                  80362580    00000040     helloWorld_pe66.oe66 (.text:xdc_runtime_IHeap_free)
                  803625c0    00000040     helloWorld_pe66.oe66 (.text:xdc_runtime_LoggerBuf_Handle__label__S)
                  80362600    00000040     ti.targets.rts6000.ae66 : LoggerBuf.oe66 (.text:xdc_runtime_LoggerBuf_Instance_finalize__F)
                  80362640    00000040     helloWorld_pe66.oe66 (.text:xdc_runtime_LoggerBuf_Object__delete__S)
                  80362680    00000040     helloWorld_pe66.oe66 (.text:xdc_runtime_LoggerBuf_setFilterLevel__E)
                  803626c0    00000040     ti.targets.rts6000.ae66 : LoggerBuf.oe66 (.text:xdc_runtime_LoggerBuf_write0__F)
                  80362700    00000040     helloWorld_pe66.oe66 (.text:xdc_runtime_LoggerBuf_write1__E)
                  80362740    00000040     ti.targets.rts6000.ae66 : LoggerBuf.oe66 (.text:xdc_runtime_LoggerBuf_write1__F)
                  80362780    00000040     helloWorld_pe66.oe66 (.text:xdc_runtime_LoggerBuf_write2__E)
                  803627c0    00000040     ti.targets.rts6000.ae66 : LoggerBuf.oe66 (.text:xdc_runtime_LoggerBuf_write2__F)
                  80362800    00000040     helloWorld_pe66.oe66 (.text:xdc_runtime_LoggerBuf_write4__E)
                  80362840    00000040     ti.targets.rts6000.ae66 : Memory.oe66 (.text:xdc_runtime_Memory_free__F)
                  80362880    00000040                             : Registry.oe66 (.text:xdc_runtime_Registry_findById__F)
                  803628c0    00000040     helloWorld_pe66.oe66 (.text:xdc_runtime_Startup_exec__I)
                  80362900    00000040     ti.targets.rts6000.ae66 : System.oe66 (.text:xdc_runtime_System_abort__F)
                  80362940    00000040     helloWorld_pe66.oe66 (.text:xdc_runtime_System_aprintf__E)
                  80362980    00000040     helloWorld_pe66.oe66 (.text:xdc_runtime_System_printf__E)
                  803629c0    00000040     ti.targets.rts6000.ae66 : Text.oe66 (.text:xdc_runtime_Text_ropeText__F)
                  80362a00    00000040     helloWorld_pe66.oe66 (.text:xdc_runtime_Text_visitRope__I)
                  80362a40    00000020     stk6_ppp_pppoe.ae66 : bind6.oe66 (.text:Bind6GetInterfaceHandle)
                  80362a60    00000020                         : bind6.oe66 (.text:Bind6GetLifetime)
                  80362a80    00000020                         : bind6.oe66 (.text:Bind6SetLifetime)
                  80362aa0    00000020                         : bind.oe66 (.text:BindGetFirst)
                  80362ac0    00000020                         : bind.oe66 (.text:BindGetIF)
                  80362ae0    00000020                         : bind.oe66 (.text:BindGetNext)
                  80362b00    00000020                         : bind.oe66 (.text:BindIFNet2IPHost)
                  80362b20    00000020                         : bind.oe66 (.text:BindIPHost2IF)
                  80362b40    00000020     ti.csl.ae66 : csl_gpioGetBaseAddress.oe66 (.text:CSL_GPIO_open)
                  80362b60    00000020     nettool.ae66 : config.oe66 (.text:CfgSetDefault)
                  80362b80    00000020     ti.drv.cppi.ae66 : cppi_drv.oe66 (.text:Cppi_init)
                  80362ba0    00000020     stk6_ppp_pppoe.ae66 : exec.oe66 (.text:ExecHRef)
                  80362bc0    00000020                         : exec.oe66 (.text:ExecLowResource)
                  80362be0    00000020                         : ip.oe66 (.text:IPRtChange)
                  80362c00    00000020     hal_userled_stub.ae66 : llled.oe66 (.text:LED_TOGGLE)
                  80362c20    00000020     stk6_ppp_pppoe.ae66 : lli6.oe66 (.text:LLI6GetNetDevice)
                  80362c40    00000020                         : lli6.oe66 (.text:LLI6IncRefCount)
                  80362c60    00000020                         : lli6.oe66 (.text:LLI6IsDead)
                  80362c80    00000020                         : lli6.oe66 (.text:LLI6IsRouter)
                  80362ca0    00000020                         : lli6.oe66 (.text:LLI6SetIncomplete)
                  80362cc0    00000020     netctrl.ae66 : netctrl.oe66 (.text:NC_IPUpdate)
                  80362ce0    00000020                  : netctrl.oe66 (.text:NC_NetStop)
                  80362d00    00000020     os.ae66 : task.oe66 (.text:NDK_hookInit)
                  80362d20    00000020     stk6_ppp_pppoe.ae66 : nimu.oe66 (.text:NIMUGetRsvdSizeInfo)
                  80362d40    00000020                         : nimu.oe66 (.text:NIMUSetRsvdSizeInfo)
                  80362d60    00000020                         : nat.oe66 (.text:NatMsg)
                  80362d80    00000020                         : node.oe66 (.text:NodeGetRt)
                  80362da0    00000020                         : node.oe66 (.text:NodeSetRt)
                  80362dc0    00000020     os.ae66 : task.oe66 (.text:NotifyLowResource)
                  80362de0    00000020             : oem.oe66 (.text:OEMCacheClean)
                  80362e00    00000020             : oem.oe66 (.text:OEMSysCritOff)
                  80362e20    00000020             : oem.oe66 (.text:OEMSysCritOn)
                  80362e40    00000020     stk6_ppp_pppoe.ae66 : pbm.oe66 (.text:PBM_close)
                  80362e60    00000020     ti.drv.qmss.ae66 : qmss_drv.oe66 (.text:Qmss_getQueueNumber)
                  80362e80    00000020                      : qmss_drv.oe66 (.text:Qmss_start)
                  80362ea0    00000020     stk6_ppp_pppoe.ae66 : rawethsock_prot.oe66 (.text:RawEthSockPrAttach)
                  80362ec0    00000020                         : rawethsock_prot.oe66 (.text:RawEthSockPrDetach)
                  80362ee0    00000020                         : route6.oe66 (.text:Rt6GetIF)
                  80362f00    00000020                         : route6.oe66 (.text:Rt6GetLLI)
                  80362f20    00000020                         : route6.oe66 (.text:Rt6GetMTU)
                  80362f40    00000020                         : route6.oe66 (.text:Rt6IncRefCount)
                  80362f60    00000020                         : route6.oe66 (.text:Rt6IsLocalRoute)
                  80362f80    00000020     os.ae66 : semaphore.oe66 (.text:SemDelete)
                  80362fa0    00000020             : semaphore.oe66 (.text:SemPend)
                  80362fc0    00000020             : semaphore.oe66 (.text:SemPost)
                  80362fe0    00000020             : semaphore.oe66 (.text:SemReset)
                  80363000    00000020     stk6_ppp_pppoe.ae66 : sock6prot.oe66 (.text:Sock6PrAttach)
                  80363020    00000020                         : sock6int.oe66 (.text:Sock6SetOOBData)
                  80363040    00000020                         : sockprot.oe66 (.text:SockPrAttach)
                  80363060    00000020                         : sockint.oe66 (.text:SockSetOOBData)
                  80363080    00000020                         : tcp6prot.oe66 (.text:TCP6PrRecv)
                  803630a0    00000020                         : tcp6.oe66 (.text:TCP6TimeoutAdd)
                  803630c0    00000020     os.ae66 : task.oe66 (.text:TaskBlock)
                  803630e0    00000020             : task.oe66 (.text:TaskSelf)
                  80363100    00000020             : task.oe66 (.text:TaskSetPri)
                  80363120    00000020     stk6_ppp_pppoe.ae66 : tcpprot.oe66 (.text:TcpPrRecv)
                  80363140    00000020                         : tcp.oe66 (.text:TcpTimeoutAdd)
                  80363160    00000020                         : timer.oe66 (.text:TimerFree)
                  80363180    00000020     os.ae66 : task.oe66 (.text:_TaskInit)
                  803631a0    00000020             : task.oe66 (.text:_TaskShutdown)
                  803631c0    00000020     rts6600_elf.lib : negll.obj (.text:__c6xabi_negll)
                  803631e0    00000020                     : dtor_list.obj (.text:__cxa_atexit)
                  80363200    00000020                     : dtor_list.obj (.text:__cxa_ia64_exit)
                  80363220    00000020     ti.targets.rts6000.ae66 : xdc_noinit.oe66 (.text:__xdc__init)
                  80363240    00000020     hal_ser_stub.ae66 : llserstb.oe66 (.text:_llSerialInit)
                  80363260    00000020                       : llserstb.oe66 (.text:_llSerialServiceCheck)
                  80363280    00000020                       : llserstb.oe66 (.text:_llSerialShutdown)
                  803632a0    00000020     hal_timer_bios.ae66 : lltimer.oe66 (.text:_llTimerShutdown)
                  803632c0    00000020     hal_userled_stub.ae66 : llled.oe66 (.text:_llUserLedInit)
                  803632e0    00000020                           : llled.oe66 (.text:_llUserLedShutdown)
                  80363300    00000020     rts6600_elf.lib : _lock.obj (.text:_nop)
                  80363320    00000020                     : printf.obj (.text:_outc)
                  80363340    00000020                     : sprintf.obj (.text:_outc)
                  80363360    00000020                     : vsprintf.obj (.text:_outc)
                  80363380    00000020                     : printf.obj (.text:_outs)
                  803633a0    00000020                     : _lock.obj (.text:_register_lock)
                  803633c0    00000020                     : _lock.obj (.text:_register_unlock)
                  803633e0    00000020     sysbios.lib : c62_TaskSupport_asm.obj (.text:_ti_sysbios_family_c62_TaskSupport_glue)
                  80363400    00000020                 : c64p_Hwi_asm_switch.obj (.text:_ti_sysbios_family_xxx_Hwi_switchToTaskStack)
                  80363420    00000020     rts6600_elf.lib : exit.obj (.text:abort)
                  80363440    00000020                     : dtor_list.obj (.text:atexit)
                  80363460    00000020     ti.drv.cppi.ae66 : cppi_heap.oe66 (.text:cppi_internal_heap_free)
                  80363480    00000020                      : cppi_listlib.oe66 (.text:cppi_list_get_head)
                  803634a0    00000020                      : cppi_listlib.oe66 (.text:cppi_list_get_next)
                  803634c0    00000020     rts6600_elf.lib : copy_decompress_none.obj (.text:decompress:none:__TI_decompress_none)
                  803634e0    00000020                     : copy_decompress_rle.obj (.text:decompress:rle24:__TI_decompress_rle24)
                  80363500    00000020     os.ae66 : efs.oe66 (.text:efs_getfilesize)
                  80363520    00000020     stk6_ppp_pppoe.ae66 : file.oe66 (.text:fdint_signaltimeout)
                  80363540    00000020                         : listlib.oe66 (.text:list_get_head)
                  80363560    00000020                         : listlib.oe66 (.text:list_get_next)
                  80363580    00000020     hal_ser_stub.ae66 : llserstb.oe66 (.text:llSerialService)
                  803635a0    00000020     hal_timer_bios.ae66 : lltimer.oe66 (.text:llTimerGetStartTime)
                  803635c0    00000020     sysbios.lib : BIOS.obj (.text:nullFunc$0)
                  803635e0    00000020     ti.drv.pa.ae66 : pa.oe66 (.text:pa_u16_match)
                  80363600    00000020                    : pa.oe66 (.text:pa_u32_match)
                  80363620    00000020     rts6600_elf.lib : fputc.obj (.text:putc)
                  80363640    00000020                     : fputc.obj (.text:putchar)
                  80363660    00000020     helloWorld_pe66.oe66 (.text:ti_sysbios_BIOS_RtsGateProxy_enter__E)
                  80363680    00000020     helloWorld_pe66.oe66 (.text:ti_sysbios_BIOS_RtsGateProxy_leave__E)
                  803636a0    00000020     sysbios.lib : BIOS.obj (.text:ti_sysbios_BIOS_setThreadType__E)
                  803636c0    00000020     helloWorld_pe66.oe66 (.text:ti_sysbios_family_c62_TaskSupport_Module__startupDone__S)
                  803636e0    00000020     sysbios.lib : BIOS.obj (.text:ti_sysbios_family_c62_TaskSupport_checkStack__E)
                  80363700    00000020                 : BIOS.obj (.text:ti_sysbios_family_c62_TaskSupport_getStackAlignment__E)
                  80363720    00000020     helloWorld_pe66.oe66 (.text:ti_sysbios_family_c64p_EventCombiner_Module_startup__E)
                  80363740    00000020     helloWorld_pe66.oe66 (.text:ti_sysbios_family_c64p_EventCombiner_disableEvent__E)
                  80363760    00000020     helloWorld_pe66.oe66 (.text:ti_sysbios_family_c64p_EventCombiner_dispatch__E)
                  80363780    00000020     helloWorld_pe66.oe66 (.text:ti_sysbios_family_c64p_EventCombiner_enableEvent__E)
                  803637a0    00000020     helloWorld_pe66.oe66 (.text:ti_sysbios_family_c64p_EventCombiner_unused__E)
                  803637c0    00000020     helloWorld_pe66.oe66 (.text:ti_sysbios_family_c64p_Exception_Module_startup__E)
                  803637e0    00000020     helloWorld_pe66.oe66 (.text:ti_sysbios_family_c64p_Hwi_Module__startupDone__S)
                  80363800    00000020     helloWorld_pe66.oe66 (.text:ti_sysbios_family_c64p_Hwi_Module_startup__E)
                  80363820    00000020     sysbios.lib : BIOS.obj (.text:ti_sysbios_family_c64p_Hwi_clearInterrupt__E)
                  80363840    00000020                 : BIOS.obj (.text:ti_sysbios_family_c64p_Hwi_startup__E)
                  80363860    00000020                 : BIOS.obj (.text:ti_sysbios_family_c64p_Hwi_switchFromBootStack__E)
                  80363880    00000020                 : BIOS.obj (.text:ti_sysbios_family_c64p_Hwi_unPluggedInterrupt__I)
                  803638a0    00000020     helloWorld_pe66.oe66 (.text:ti_sysbios_family_c64p_TimestampProvider_Module_startup__E)
                  803638c0    00000020     sysbios.lib : BIOS.obj (.text:ti_sysbios_family_c64p_TimestampProvider_Module_startup__F)
                  803638e0    00000020                 : BIOS.obj (.text:ti_sysbios_family_c64p_TimestampProvider_get64__E)
                  80363900    00000020                 : BIOS.obj (.text:ti_sysbios_family_c64p_tci6488_TimerSupport_enable__E)
                  80363920    00000020     helloWorld_pe66.oe66 (.text:ti_sysbios_family_c66_Cache_Module_startup__E)
                  80363940    00000020     sysbios.lib : BIOS.obj (.text:ti_sysbios_family_c66_Cache_wbInv__E)
                  80363960    00000020     helloWorld_pe66.oe66 (.text:ti_sysbios_family_c66_tci66xx_CpIntc_Module_startup__E)
                  80363980    00000020     helloWorld_pe66.oe66 (.text:ti_sysbios_family_c66_tci66xx_CpIntc_clearSysInt__E)
                  803639a0    00000020     sysbios.lib : BIOS.obj (.text:ti_sysbios_family_c66_tci66xx_CpIntc_clearSysInt__F)
                  803639c0    00000020     helloWorld_pe66.oe66 (.text:ti_sysbios_family_c66_tci66xx_CpIntc_disableAllHostInts__E)
                  803639e0    00000020     helloWorld_pe66.oe66 (.text:ti_sysbios_family_c66_tci66xx_CpIntc_disableHostInt__E)
                  80363a00    00000020     sysbios.lib : BIOS.obj (.text:ti_sysbios_family_c66_tci66xx_CpIntc_disableHostInt__F)
                  80363a20    00000020     helloWorld_pe66.oe66 (.text:ti_sysbios_family_c66_tci66xx_CpIntc_dispatch__E)
                  80363a40    00000020     helloWorld_pe66.oe66 (.text:ti_sysbios_family_c66_tci66xx_CpIntc_enableAllHostInts__E)
                  80363a60    00000020     helloWorld_pe66.oe66 (.text:ti_sysbios_family_c66_tci66xx_CpIntc_enableHostInt__E)
                  80363a80    00000020     sysbios.lib : BIOS.obj (.text:ti_sysbios_family_c66_tci66xx_CpIntc_enableHostInt__F)
                  80363aa0    00000020     helloWorld_pe66.oe66 (.text:ti_sysbios_family_c66_tci66xx_CpIntc_enableSysInt__E)
                  80363ac0    00000020     sysbios.lib : BIOS.obj (.text:ti_sysbios_family_c66_tci66xx_CpIntc_enableSysInt__F)
                  80363ae0    00000020     helloWorld_pe66.oe66 (.text:ti_sysbios_family_c66_tci66xx_CpIntc_getEventId__E)
                  80363b00    00000020     helloWorld_pe66.oe66 (.text:ti_sysbios_family_c66_tci66xx_CpIntc_mapSysIntToHostInt__E)
                  80363b20    00000020     helloWorld_pe66.oe66 (.text:ti_sysbios_family_c66_tci66xx_CpIntc_unused__E)
                  80363b40    00000020     sysbios.lib : BIOS.obj (.text:ti_sysbios_gates_GateHwi_Instance_init__F)
                  80363b60    00000020                 : BIOS.obj (.text:ti_sysbios_gates_GateHwi_enter__E)
                  80363b80    00000020                 : BIOS.obj (.text:ti_sysbios_gates_GateHwi_leave__E)
                  80363ba0    00000020     helloWorld_pe66.oe66 (.text:ti_sysbios_gates_GateHwi_query__E)
                  80363bc0    00000020     sysbios.lib : BIOS.obj (.text:ti_sysbios_gates_GateHwi_query__F)
                  80363be0    00000020     helloWorld_pe66.oe66 (.text:ti_sysbios_gates_GateMutex_query__E)
                  80363c00    00000020     sysbios.lib : BIOS.obj (.text:ti_sysbios_gates_GateMutex_query__F)
                  80363c20    00000020     helloWorld_pe66.oe66 (.text:ti_sysbios_hal_Hwi_HwiProxy_Module__startupDone__S)
                  80363c40    00000020     helloWorld_pe66.oe66 (.text:ti_sysbios_hal_Hwi_HwiProxy_Object__delete__S)
                  80363c60    00000020     helloWorld_pe66.oe66 (.text:ti_sysbios_hal_Hwi_HwiProxy_clearInterrupt__E)
                  80363c80    00000020     helloWorld_pe66.oe66 (.text:ti_sysbios_hal_Hwi_HwiProxy_disableInterrupt__E)
                  80363ca0    00000020     helloWorld_pe66.oe66 (.text:ti_sysbios_hal_Hwi_HwiProxy_enableInterrupt__E)
                  80363cc0    00000020     helloWorld_pe66.oe66 (.text:ti_sysbios_hal_Hwi_HwiProxy_startup__E)
                  80363ce0    00000020     helloWorld_pe66.oe66 (.text:ti_sysbios_hal_Hwi_HwiProxy_switchFromBootStack__E)
                  80363d00    00000020     helloWorld_pe66.oe66 (.text:ti_sysbios_hal_Hwi_Module_startup__E)
                  80363d20    00000020     sysbios.lib : BIOS.obj (.text:ti_sysbios_hal_Hwi_Module_startup__F)
                  80363d40    00000020     helloWorld_pe66.oe66 (.text:ti_sysbios_hal_Timer_Module__startupDone__S)
                  80363d60    00000020     helloWorld_pe66.oe66 (.text:ti_sysbios_hal_Timer_Module_startup__E)
                  80363d80    00000020     sysbios.lib : BIOS.obj (.text:ti_sysbios_hal_Timer_Module_startup__F)
                  80363da0    00000020     helloWorld_pe66.oe66 (.text:ti_sysbios_hal_Timer_TimerProxy_Module__startupDone__S)
                  80363dc0    00000020     helloWorld_pe66.oe66 (.text:ti_sysbios_hal_Timer_TimerProxy_getExpiredCounts__E)
                  80363de0    00000020     helloWorld_pe66.oe66 (.text:ti_sysbios_hal_Timer_TimerProxy_getPeriod__E)
                  80363e00    00000020     helloWorld_pe66.oe66 (.text:ti_sysbios_hal_Timer_TimerProxy_setNextTick__E)
                  80363e20    00000020     helloWorld_pe66.oe66 (.text:ti_sysbios_hal_Timer_TimerProxy_startup__E)
                  80363e40    00000020     helloWorld_pe66.oe66 (.text:ti_sysbios_heaps_HeapBuf_Module_startup__E)
                  80363e60    00000020     helloWorld_pe66.oe66 (.text:ti_sysbios_heaps_HeapMem_Module_GateProxy_enter__E)
                  80363e80    00000020     helloWorld_pe66.oe66 (.text:ti_sysbios_heaps_HeapMem_Module_GateProxy_leave__E)
                  80363ea0    00000020     helloWorld_pe66.oe66 (.text:ti_sysbios_heaps_HeapMem_Module_GateProxy_query__E)
                  80363ec0    00000020     sysbios.lib : BIOS.obj (.text:ti_sysbios_heaps_HeapMem_isBlocking__E)
                  80363ee0    00000020     helloWorld_pe66.oe66 (.text:ti_sysbios_knl_Clock_Module_State_clockQ)
                  80363f00    00000020     helloWorld_pe66.oe66 (.text:ti_sysbios_knl_Clock_Module_startup__E)
                  80363f20    00000020     helloWorld_pe66.oe66 (.text:ti_sysbios_knl_Clock_Params_init)
                  80363f40    00000020     sysbios.lib : BIOS.obj (.text:ti_sysbios_knl_Queue_Instance_init__F)
                  80363f60    00000020                 : BIOS.obj (.text:ti_sysbios_knl_Queue_empty__E)
                  80363f80    00000020                 : BIOS.obj (.text:ti_sysbios_knl_Semaphore_reset__E)
                  80363fa0    00000020     helloWorld_pe66.oe66 (.text:ti_sysbios_knl_Swi_Module_startup__E)
                  80363fc0    00000020     sysbios.lib : BIOS.obj (.text:ti_sysbios_knl_Swi_disable__E)
                  80363fe0    00000020     helloWorld_pe66.oe66 (.text:ti_sysbios_knl_Task_Module_startup__E)
                  80364000    00000020     helloWorld_pe66.oe66 (.text:ti_sysbios_knl_Task_SupportProxy_Module__startupDone__S)
                  80364020    00000020     helloWorld_pe66.oe66 (.text:ti_sysbios_knl_Task_SupportProxy_checkStack__E)
                  80364040    00000020     helloWorld_pe66.oe66 (.text:ti_sysbios_knl_Task_SupportProxy_getStackAlignment__E)
                  80364060    00000020     helloWorld_pe66.oe66 (.text:ti_sysbios_knl_Task_SupportProxy_start__E)
                  80364080    00000020     helloWorld_pe66.oe66 (.text:ti_sysbios_knl_Task_SupportProxy_swap__E)
                  803640a0    00000020     sysbios.lib : BIOS.obj (.text:ti_sysbios_knl_Task_disable__E)
                  803640c0    00000020                 : BIOS.obj (.text:ti_sysbios_knl_Task_getHookContext__E)
                  803640e0    00000020                 : BIOS.obj (.text:ti_sysbios_knl_Task_self__E)
                  80364100    00000020                 : BIOS.obj (.text:ti_sysbios_knl_Task_setHookContext__E)
                  80364120    00000020     helloWorld_pe66.oe66 (.text:ti_sysbios_timers_timer64_Timer_Module__startupDone__S)
                  80364140    00000020     helloWorld_pe66.oe66 (.text:ti_sysbios_timers_timer64_Timer_Module_startup__E)
                  80364160    00000020     helloWorld_pe66.oe66 (.text:ti_sysbios_timers_timer64_Timer_TimerSupportProxy_enable__E)
                  80364180    00000020     sysbios.lib : BIOS.obj (.text:ti_sysbios_timers_timer64_Timer_setNextTick__E)
                  803641a0    00000020     helloWorld_pe66.oe66 (.text:xdc_iargToPtr)
                  803641c0    00000020     helloWorld_pe66.oe66 (.text:xdc_runtime_Error_check__E)
                  803641e0    00000020     helloWorld_pe66.oe66 (.text:xdc_runtime_Error_getMsg__E)
                  80364200    00000020     ti.targets.rts6000.ae66 : Error.oe66 (.text:xdc_runtime_Error_getMsg__F)
                  80364220    00000020     helloWorld_pe66.oe66 (.text:xdc_runtime_Error_init__E)
                  80364240    00000020     helloWorld_pe66.oe66 (.text:xdc_runtime_Error_print__E)
                  80364260    00000020     helloWorld_pe66.oe66 (.text:xdc_runtime_Gate_enterSystem__E)
                  80364280    00000020     ti.targets.rts6000.ae66 : Gate.oe66 (.text:xdc_runtime_Gate_enterSystem__F)
                  803642a0    00000020     helloWorld_pe66.oe66 (.text:xdc_runtime_Gate_leaveSystem__E)
                  803642c0    00000020     helloWorld_pe66.oe66 (.text:xdc_runtime_LoggerBuf_Module_GateProxy_enter__E)
                  803642e0    00000020     helloWorld_pe66.oe66 (.text:xdc_runtime_LoggerBuf_Module_GateProxy_leave__E)
                  80364300    00000020     helloWorld_pe66.oe66 (.text:xdc_runtime_LoggerBuf_Module_startup__E)
                  80364320    00000020     helloWorld_pe66.oe66 (.text:xdc_runtime_LoggerBuf_TimestampProxy_get64__E)
                  80364340    00000020     helloWorld_pe66.oe66 (.text:xdc_runtime_LoggerBuf_disable__E)
                  80364360    00000020     ti.targets.rts6000.ae66 : LoggerBuf.oe66 (.text:xdc_runtime_LoggerBuf_disable__F)
                  80364380    00000020     helloWorld_pe66.oe66 (.text:xdc_runtime_LoggerBuf_enable__E)
                  803643a0    00000020     ti.targets.rts6000.ae66 : LoggerBuf.oe66 (.text:xdc_runtime_LoggerBuf_enable__F)
                  803643c0    00000020     helloWorld_pe66.oe66 (.text:xdc_runtime_LoggerBuf_getFilterLevel__E)
                  803643e0    00000020     helloWorld_pe66.oe66 (.text:xdc_runtime_LoggerBuf_write0__E)
                  80364400    00000020     helloWorld_pe66.oe66 (.text:xdc_runtime_Memory_HeapProxy_alloc__E)
                  80364420    00000020     helloWorld_pe66.oe66 (.text:xdc_runtime_Memory_HeapProxy_free__E)
                  80364440    00000020     helloWorld_pe66.oe66 (.text:xdc_runtime_Memory_alloc__E)
                  80364460    00000020     helloWorld_pe66.oe66 (.text:xdc_runtime_Memory_calloc__E)
                  80364480    00000020     helloWorld_pe66.oe66 (.text:xdc_runtime_Memory_free__E)
                  803644a0    00000020     helloWorld_pe66.oe66 (.text:xdc_runtime_Registry_findById__E)
                  803644c0    00000020     helloWorld_pe66.oe66 (.text:xdc_runtime_Startup_exec__E)
                  803644e0    00000020     helloWorld_pe66.oe66 (.text:xdc_runtime_Startup_reset__I)
                  80364500    00000020     helloWorld_pe66.oe66 (.text:xdc_runtime_SysStd_abort__E)
                  80364520    00000020     helloWorld_pe66.oe66 (.text:xdc_runtime_SysStd_exit__E)
                  80364540    00000020     ti.targets.rts6000.ae66 : SysStd.oe66 (.text:xdc_runtime_SysStd_exit__F)
                  80364560    00000020     helloWorld_pe66.oe66 (.text:xdc_runtime_SysStd_putch__E)
                  80364580    00000020     ti.targets.rts6000.ae66 : SysStd.oe66 (.text:xdc_runtime_SysStd_putch__F)
                  803645a0    00000020     helloWorld_pe66.oe66 (.text:xdc_runtime_SysStd_ready__E)
                  803645c0    00000020     ti.targets.rts6000.ae66 : SysStd.oe66 (.text:xdc_runtime_SysStd_ready__F)
                  803645e0    00000020     helloWorld_pe66.oe66 (.text:xdc_runtime_System_Module_GateProxy_enter__E)
                  80364600    00000020     helloWorld_pe66.oe66 (.text:xdc_runtime_System_Module_GateProxy_leave__E)
                  80364620    00000020     helloWorld_pe66.oe66 (.text:xdc_runtime_System_Module_startup__E)
                  80364640    00000020     ti.targets.rts6000.ae66 : System.oe66 (.text:xdc_runtime_System_Module_startup__F)
                  80364660    00000020     helloWorld_pe66.oe66 (.text:xdc_runtime_System_SupportProxy_abort__E)
                  80364680    00000020     helloWorld_pe66.oe66 (.text:xdc_runtime_System_SupportProxy_exit__E)
                  803646a0    00000020     helloWorld_pe66.oe66 (.text:xdc_runtime_System_SupportProxy_putch__E)
                  803646c0    00000020     helloWorld_pe66.oe66 (.text:xdc_runtime_System_SupportProxy_ready__E)
                  803646e0    00000020     helloWorld_pe66.oe66 (.text:xdc_runtime_System_abort__E)
                  80364700    00000020     helloWorld_pe66.oe66 (.text:xdc_runtime_System_atexit__E)
                  80364720    00000020     helloWorld_pe66.oe66 (.text:xdc_runtime_System_exit__E)
                  80364740    00000020     ti.targets.rts6000.ae66 : System.oe66 (.text:xdc_runtime_System_exit__F)
                  80364760    00000020                             : System.oe66 (.text:xdc_runtime_System_lastFxn__I)
                  80364780    00000020     helloWorld_pe66.oe66 (.text:xdc_runtime_System_vsprintf__E)
                  803647a0    00000020     ti.targets.rts6000.ae66 : System.oe66 (.text:xdc_runtime_System_vsprintf__F)
                  803647c0    00000020     helloWorld_pe66.oe66 (.text:xdc_runtime_Text_cordText__E)
                  803647e0    00000020     helloWorld_pe66.oe66 (.text:xdc_runtime_Text_putLab__E)
                  80364800    00000020     helloWorld_pe66.oe66 (.text:xdc_runtime_Text_putSite__E)
                  80364820    00000020     helloWorld_pe66.oe66 (.text:xdc_runtime_Text_ropeText__E)

.far       0    80364840    0000db80     
                  80364840    0000c1c0     os.ae66 : mem_data.oe66 (.far:NDK_MMBUFFER) [fill = 0]
                  80370a00    00000820     helloWorld_pe66.oe66 (.far) [fill = 0]
                  80371220    00000660     nettool.ae66 : daemon.oe66 (.far) [fill = 0]
                  80371880    00000140     rts6600_elf.lib : defs.obj (.far) [fill = 0]
                  803719c0    00000120     ti.drv.qmss.ae66 : qmss_drv.oe66 (.far) [fill = 0]
                  80371ae0    00000110     stk6_ppp_pppoe.ae66 : igmp.oe66 (.far) [fill = 0]
                  80371bf0    000000d8     netctrl.ae66 : netsrv.oe66 (.far) [fill = 0]
                  80371cc8    000000c8     stk6_ppp_pppoe.ae66 : ipv6.oe66 (.far) [fill = 0]
                  80371d90    000000c4                         : tcp.oe66 (.far) [fill = 0]
                  80371e54    000000b8                         : tcp6in.oe66 (.far) [fill = 0]
                  80371f0c    00000004                         : rawethsock_pcb.oe66 (.far) [fill = 0]
                  80371f10    0000009c                         : icmp.oe66 (.far) [fill = 0]
                  80371fac    00000094     helloWorld.obj (.far) [fill = 0]
                  80372040    0000007c     os.ae66 : mem.oe66 (.far) [fill = 0]
                  803720bc    0000006c     KeyStone_common.obj (.far) [fill = 0]
                  80372128    00000068     stk6_ppp_pppoe.ae66 : ip.oe66 (.far) [fill = 0]
                  80372190    00000064                         : nimu.oe66 (.far) [fill = 0]
                  803721f4    00000004     --HOLE--
                  803721f8    00000044     ti.platform.evm6678l.ae66 : evmc66x_i2c_eeprom.obj (.far) [fill = 0]
                  8037223c    00000030     stk6_ppp_pppoe.ae66 : udp.oe66 (.far) [fill = 0]
                  8037226c    00000004     --HOLE--
                  80372270    00000030     ti.transport.ndk.nimu.ae66 : nimu_eth.obj (.far) [fill = 0]
                  803722a0    00000028     stk6_ppp_pppoe.ae66 : vlan.oe66 (.far) [fill = 0]
                  803722c8    00000024                         : udp6.oe66 (.far) [fill = 0]
                  803722ec    00000004     --HOLE--
                  803722f0    00000020     resourcemgr.obj (.far) [fill = 0]
                  80372310    0000001c     os.ae66 : mem_data.oe66 (.far:NDK_MMBUFFER1)
                  8037232c    00000018     stk6_ppp_pppoe.ae66 : icmpv6.oe66 (.far) [fill = 0]
                  80372344    0000000c                         : pbm.oe66 (.far) [fill = 0]
                  80372350    00000014                         : rtc.oe66 (.far) [fill = 0]
                  80372364    00000004     --HOLE--
                  80372368    00000010     KeyStone_common.obj (.far:Core_MPAX)
                  80372378    00000010     netctrl.ae66 : netctrl.oe66 (.far) [fill = 0]
                  80372388    00000010     stk6_ppp_pppoe.ae66 : raw.oe66 (.far) [fill = 0]
                  80372398    00000010                         : raw6.oe66 (.far) [fill = 0]
                  803723a8    00000010                         : raweth.oe66 (.far) [fill = 0]
                  803723b8    00000008     rts6600_elf.lib : trgdrv.obj (.far) [fill = 0]

.const     0    803723c0    0000b502     
                  803723c0    00001dc8     resourcemgr.obj (.const:c1)
                  80374188    00001a68     KeyStone_common.obj (.const:.string)
                  80375bf0    000018ac     resourcemgr.obj (.const:m)
                  8037749c    00000004     nettool.ae66 : telnetd.oe66 (.const:.string)
                  803774a0    00001282     helloWorld_pe66.oe66 (.const:xdc_runtime_Text_charTab__A)
                  80378722    00000006     stk6_ppp_pppoe.ae66 : auth.oe66 (.const:.string)
                  80378728    0000118c     resourcemgr.obj (.const:c2)
                  803798b4    000007d4     ti.transport.ndk.nimu.ae66 : nimu_eth.obj (.const:.string)
                  8037a088    00000630     resourcemgr.obj (.const:acc48_le)
                  8037a6b8    0000042c     sysbios.lib : BIOS.obj (.const:.string)
                  8037aae4    00000004     ti.targets.rts6000.ae66 : Assert.oe66 (.const:.string)
                  8037aae8    00000400     helloWorld_pe66.oe66 (.const:ti_sysbios_family_c66_Cache_marvalues__C)
                  8037aee8    00000398     resourcemgr.obj (.const:.string)
                  8037b280    00000284     helloWorld.obj (.const:.string)
                  8037b504    0000014f     os.ae66 : mem.oe66 (.const:.string)
                  8037b653    00000001     --HOLE-- [fill = 0]
                  8037b654    00000134     KeyStone_SPI_Init_drv.obj (.const:.string)
                  8037b788    00000129     nettool.ae66 : httpsend.oe66 (.const:.string)
                  8037b8b1    00000121     stk6_ppp_pppoe.ae66 : nimuppp.oe66 (.const:.string)
                  8037b9d2    0000010e                         : route6.oe66 (.const:.string)
                  8037bae0    00000109     os.ae66 : task.oe66 (.const:.string)
                  8037bbe9    00000002     rts6600_elf.lib : fputs.obj (.const:.string)
                  8037bbeb    00000001     --HOLE-- [fill = 0]
                  8037bbec    00000004     helloWorld_pe66.oe66 (.const:ti_sysbios_BIOS_Module__diagsEnabled__C)
                  8037bbf0    00000101     rts6600_elf.lib : ctype.obj (.const:.string:_ctypes_)
                  8037bcf1    00000001     --HOLE-- [fill = 0]
                  8037bcf2    00000002     helloWorld_pe66.oe66 (.const:ti_sysbios_BIOS_Module__id__C)
                  8037bcf4    00000004     helloWorld_pe66.oe66 (.const:ti_sysbios_BIOS_Module__diagsIncluded__C)
                  8037bcf8    000000fc     helloWorld_pe66.oe66 (.const:xdc_runtime_Text_nodeTab__A)
                  8037bdf4    000000fa     stk6_ppp_pppoe.ae66 : bind6.oe66 (.const:.string)
                  8037beee    000000d9                         : vlan.oe66 (.const:.string)
                  8037bfc7    000000d7     nettool.ae66 : httpstr.oe66 (.const:.string)
                  8037c09e    000000cf     stk6_ppp_pppoe.ae66 : rtc.oe66 (.const:.string)
                  8037c16d    000000bf                         : lliout.oe66 (.const:.string)
                  8037c22c    000000b8                         : node.oe66 (.const:.string)
                  8037c2e4    000000b7                         : icmpv6_ndisc.oe66 (.const:.string)
                  8037c39b    000000b1                         : icmpv6out.oe66 (.const:.string)
                  8037c44c    000000a2                         : nimupppoe.oe66 (.const:.string)
                  8037c4ee    00000002     helloWorld_pe66.oe66 (.const:ti_sysbios_family_c64p_EventCombiner_Module__id__C)
                  8037c4f0    000000a0     helloWorld_pe66.oe66 (.const:ti_sysbios_family_c66_tci66xx_CpIntc_sysIntToHostInt__A)
                  8037c590    00000099     stk6_ppp_pppoe.ae66 : lli6.oe66 (.const:.string)
                  8037c629    00000094                         : nimu.oe66 (.const:.string)
                  8037c6bd    00000001     --HOLE-- [fill = 0]
                  8037c6be    00000002     helloWorld_pe66.oe66 (.const:ti_sysbios_family_c64p_Exception_Module__id__C)
                  8037c6c0    0000007c     SPI_Intc.obj (.const:.string)
                  8037c73c    00000064     ti.transport.ndk.nimu.ae66 : nimu_eth.obj (.const)
                  8037c7a0    00000060     helloWorld_pe66.oe66 (.const:.string)
                  8037c800    00000060     stk6_ppp_pppoe.ae66 : sb.oe66 (.const:.string)
                  8037c860    00000060     ti.drv.pa.ae66 : pa.oe66 (.const:pap_pdsp_const_reg_map)
                  8037c8c0    0000005a     stk6_ppp_pppoe.ae66 : mld.oe66 (.const:.string)
                  8037c91a    00000058                         : tcp6time.oe66 (.const:.string)
                  8037c972    00000058                         : tcptime.oe66 (.const:.string)
                  8037c9ca    00000002     helloWorld_pe66.oe66 (.const:ti_sysbios_family_c64p_Hwi_Module__id__C)
                  8037c9cc    00000058     ti.platform.evm6678l.ae66 : platform.obj (.const:.string)
                  8037ca24    00000058     ti.targets.rts6000.ae66 : Error.oe66 (.const:.string)
                  8037ca7c    00000057     stk6_ppp_pppoe.ae66 : udp6.oe66 (.const:.string)
                  8037cad3    0000000c     os.ae66 : efs.oe66 (.const:.string)
                  8037cadf    00000001     --HOLE-- [fill = 0]
                  8037cae0    00000054     stk6_ppp_pppoe.ae66 : sockprot.oe66 (.const:Code2Err)
                  8037cb34    00000050                         : bind.oe66 (.const:.string)
                  8037cb84    0000004e                         : rtable.oe66 (.const:.string)
                  8037cbd2    00000041     nettool.ae66 : httpclie.oe66 (.const:.string)
                  8037cc13    00000041     stk6_ppp_pppoe.ae66 : sb6.oe66 (.const:.string)
                  8037cc54    00000040     ti.targets.rts6000.ae66 : Text.oe66 (.const:.string)
                  8037cc94    0000003e     stk6_ppp_pppoe.ae66 : ipv6.oe66 (.const:.string)
                  8037ccd2    00000002     helloWorld_pe66.oe66 (.const:ti_sysbios_family_c64p_Hwi_Module__loggerDefined__C)
                  8037ccd4    0000003c     helloWorld_pe66.oe66 (.const:xdc_runtime_LoggerBuf_Module__FXNS__C)
                  8037cd10    0000003c     helloWorld_pe66.oe66 (.const:xdc_runtime_Startup_sfxnTab__A)
                  8037cd4c    0000003b     stk6_ppp_pppoe.ae66 : sock6pcb.oe66 (.const:.string)
                  8037cd87    00000001     --HOLE-- [fill = 0]
                  8037cd88    00000038     KeyStone_common.obj (.const:$P$T0$1)
                  8037cdc0    00000038     helloWorld_pe66.oe66 (.const:ti_sysbios_knl_Task_Object__PARAMS__C)
                  8037cdf8    00000037     netctrl.ae66 : netctrl.oe66 (.const:.string)
                  8037ce2f    00000031     nettool.ae66 : dhcpmain.oe66 (.const:.string)
                  8037ce60    00000031     stk6_ppp_pppoe.ae66 : pbm.oe66 (.const:.string)
                  8037ce91    00000001     --HOLE-- [fill = 0]
                  8037ce92    00000002     helloWorld_pe66.oe66 (.const:ti_sysbios_family_c66_tci66xx_CpIntc_Module__id__C)
                  8037ce94    00000030     helloWorld_pe66.oe66 (.const:ti_sysbios_family_c64p_Hwi_Object__PARAMS__C)
                  8037cec4    00000004     helloWorld_pe66.oe66 (.const:ti_sysbios_BIOS_Module__diagsMask__C)
                  8037cec8    00000030     helloWorld_pe66.oe66 (.const:ti_sysbios_knl_Task_hooks__A)
                  8037cef8    0000002f     stk6_ppp_pppoe.ae66 : sock.oe66 (.const:.string)
                  8037cf27    00000001     --HOLE-- [fill = 0]
                  8037cf28    0000002c     ti.targets.rts6000.ae66 : Startup.oe66 (.const:.string)
                  8037cf54    0000002c     helloWorld_pe66.oe66 (.const:ti_sysbios_hal_Hwi_Object__PARAMS__C)
                  8037cf80    00000028     os.ae66 : semaphore.oe66 (.const:.string)
                  8037cfa8    00000028     stk6_ppp_pppoe.ae66 : icmpv6in.oe66 (.const:.string)
                  8037cfd0    00000028     helloWorld_pe66.oe66 (.const:ti_sysbios_heaps_HeapMem_Module__FXNS__C)
                  8037cff8    00000028     helloWorld_pe66.oe66 (.const:xdc_runtime_LoggerBuf_Object__PARAMS__C)
                  8037d020    00000027     stk6_ppp_pppoe.ae66 : ipv6_exthdrs.oe66 (.const:.string)
                  8037d047    00000001     --HOLE-- [fill = 0]
                  8037d048    00000024     helloWorld_pe66.oe66 (.const:ti_sysbios_gates_GateHwi_Module__FXNS__C)
                  8037d06c    00000024     helloWorld_pe66.oe66 (.const:ti_sysbios_gates_GateMutex_Module__FXNS__C)
                  8037d090    00000024     helloWorld_pe66.oe66 (.const:ti_sysbios_knl_Clock_Object__PARAMS__C)
                  8037d0b4    00000024     helloWorld_pe66.oe66 (.const:ti_sysbios_knl_Semaphore_Object__PARAMS__C)
                  8037d0d8    00000023     rts6600_elf.lib : _printfi.obj (.const:.string)
                  8037d0fb    00000001     --HOLE-- [fill = 0]
                  8037d0fc    00000020     ti.targets.rts6000.ae66 : Core-mem.oe66 (.const:.string)
                  8037d11c    00000020     helloWorld_pe66.oe66 (.const:ti_sysbios_family_c64p_Hwi_Object__DESC__C)
                  8037d13c    00000004     helloWorld_pe66.oe66 (.const:ti_sysbios_BIOS_installedErrorHook__C)
                  8037d140    00000020     helloWorld_pe66.oe66 (.const:ti_sysbios_family_c66_tci66xx_CpIntc_hostIntToEventId__A)
                  8037d160    00000020     helloWorld_pe66.oe66 (.const:ti_sysbios_gates_GateHwi_Object__DESC__C)
                  8037d180    00000020     helloWorld_pe66.oe66 (.const:ti_sysbios_gates_GateMutex_Object__DESC__C)
                  8037d1a0    00000020     helloWorld_pe66.oe66 (.const:ti_sysbios_hal_Hwi_Object__DESC__C)
                  8037d1c0    00000020     helloWorld_pe66.oe66 (.const:ti_sysbios_heaps_HeapMem_Object__DESC__C)
                  8037d1e0    00000020     helloWorld_pe66.oe66 (.const:ti_sysbios_heaps_HeapMem_Object__PARAMS__C)
                  8037d200    00000020     helloWorld_pe66.oe66 (.const:ti_sysbios_knl_Clock_Object__DESC__C)
                  8037d220    00000020     helloWorld_pe66.oe66 (.const:ti_sysbios_knl_Queue_Object__DESC__C)
                  8037d240    00000020     helloWorld_pe66.oe66 (.const:ti_sysbios_knl_Semaphore_Object__DESC__C)
                  8037d260    00000020     helloWorld_pe66.oe66 (.const:ti_sysbios_knl_Task_Object__DESC__C)
                  8037d280    00000020     helloWorld_pe66.oe66 (.const:xdc_runtime_LoggerBuf_Object__DESC__C)
                  8037d2a0    0000001e     ti.transport.ndk.nimu.ae66 : nimu_eth.obj (.const:$P$T4$5)
                  8037d2be    0000001e     nettool.ae66 : daemon.oe66 (.const:.string)
                  8037d2dc    00000004     helloWorld_pe66.oe66 (.const:ti_sysbios_family_c62_TaskSupport_stackAlignment__C)
                  8037d2e0    0000001e     helloWorld_pe66.oe66 (.const:xdc_runtime_Startup_sfxnRts__A)
                  8037d2fe    0000001d     stk6_ppp_pppoe.ae66 : lli.oe66 (.const:.string)
                  8037d31b    00000001     --HOLE-- [fill = 0]
                  8037d31c    00000004     helloWorld_pe66.oe66 (.const:ti_sysbios_family_c64p_EventCombiner_E_unpluggedEvent__C)
                  8037d320    00000019     helloWorld_pe66.oe66 (.const:ti_sysbios_family_c66_tci66xx_CpIntc_eventId__A)
                  8037d339    00000001     --HOLE-- [fill = 0]
                  8037d33a    00000002     helloWorld_pe66.oe66 (.const:ti_sysbios_gates_GateMutex_Module__id__C)
                  8037d33c    00000004     helloWorld_pe66.oe66 (.const:ti_sysbios_family_c64p_Exception_E_exceptionMin__C)
                  8037d340    00000019     helloWorld_pe66.oe66 (.const:ti_sysbios_family_c66_tci66xx_CpIntc_hostIntToEventId_0__A)
                  8037d359    00000001     --HOLE-- [fill = 0]
                  8037d35a    00000002     helloWorld_pe66.oe66 (.const:ti_sysbios_hal_Hwi_Module__id__C)
                  8037d35c    00000004     helloWorld_pe66.oe66 (.const:ti_sysbios_family_c64p_Exception_exceptionHook__C)
                  8037d360    00000019     helloWorld_pe66.oe66 (.const:ti_sysbios_family_c66_tci66xx_CpIntc_hostIntToEventId_1__A)
                  8037d379    00000001     --HOLE-- [fill = 0]
                  8037d37a    00000002     helloWorld_pe66.oe66 (.const:ti_sysbios_heaps_HeapMem_Module__id__C)
                  8037d37c    00000004     helloWorld_pe66.oe66 (.const:ti_sysbios_family_c64p_Exception_externalHook__C)
                  8037d380    00000019     helloWorld_pe66.oe66 (.const:ti_sysbios_family_c66_tci66xx_CpIntc_hostIntToEventId_2__A)
                  8037d399    00000001     --HOLE-- [fill = 0]
                  8037d39a    00000002     helloWorld_pe66.oe66 (.const:ti_sysbios_knl_Clock_Module__id__C)
                  8037d39c    00000004     helloWorld_pe66.oe66 (.const:ti_sysbios_family_c64p_Exception_internalHook__C)
                  8037d3a0    00000019     helloWorld_pe66.oe66 (.const:ti_sysbios_family_c66_tci66xx_CpIntc_hostIntToEventId_3__A)
                  8037d3b9    00000001     --HOLE-- [fill = 0]
                  8037d3ba    00000002     helloWorld_pe66.oe66 (.const:ti_sysbios_knl_Clock_Module__loggerDefined__C)
                  8037d3bc    00000004     helloWorld_pe66.oe66 (.const:ti_sysbios_family_c64p_Exception_nmiHook__C)
                  8037d3c0    00000019     helloWorld_pe66.oe66 (.const:ti_sysbios_family_c66_tci66xx_CpIntc_hostIntToEventId_4__A)
                  8037d3d9    00000001     --HOLE-- [fill = 0]
                  8037d3da    00000002     helloWorld_pe66.oe66 (.const:ti_sysbios_knl_Semaphore_Module__id__C)
                  8037d3dc    00000004     helloWorld_pe66.oe66 (.const:ti_sysbios_family_c64p_Hwi_E_alreadyDefined__C)
                  8037d3e0    00000019     helloWorld_pe66.oe66 (.const:ti_sysbios_family_c66_tci66xx_CpIntc_hostIntToEventId_5__A)
                  8037d3f9    00000001     --HOLE-- [fill = 0]
                  8037d3fa    00000002     helloWorld_pe66.oe66 (.const:ti_sysbios_knl_Semaphore_Module__loggerDefined__C)
                  8037d3fc    00000004     helloWorld_pe66.oe66 (.const:ti_sysbios_family_c64p_Hwi_E_handleNotFound__C)
                  8037d400    00000019     helloWorld_pe66.oe66 (.const:ti_sysbios_family_c66_tci66xx_CpIntc_hostIntToEventId_6__A)
                  8037d419    00000001     --HOLE-- [fill = 0]
                  8037d41a    00000002     helloWorld_pe66.oe66 (.const:ti_sysbios_knl_Swi_Module__id__C)
                  8037d41c    00000004     helloWorld_pe66.oe66 (.const:ti_sysbios_family_c64p_Hwi_LD_end__C)
                  8037d420    00000019     helloWorld_pe66.oe66 (.const:ti_sysbios_family_c66_tci66xx_CpIntc_hostIntToEventId_7__A)
                  8037d439    00000001     --HOLE-- [fill = 0]
                  8037d43a    00000002     helloWorld_pe66.oe66 (.const:ti_sysbios_knl_Swi_Module__loggerDefined__C)
                  8037d43c    00000004     helloWorld_pe66.oe66 (.const:ti_sysbios_family_c64p_Hwi_LM_begin__C)
                  8037d440    00000018     ti.transport.ndk.nimu.ae66 : nimu_eth.obj (.const:$P$T3$4)
                  8037d458    00000018     ADS1298_drv.obj (.const:.string:$P$T0$1)
                  8037d470    00000018     nettool.ae66 : config.oe66 (.const:.string)
                  8037d488    00000018     stk6_ppp_pppoe.ae66 : exec.oe66 (.const:.string)
                  8037d4a0    00000018     resourcemgr.obj (.const)
                  8037d4b8    00000018     helloWorld_pe66.oe66 (.const:ti_sysbios_gates_GateHwi_Object__PARAMS__C)
                  8037d4d0    00000018     helloWorld_pe66.oe66 (.const:ti_sysbios_gates_GateMutex_Object__PARAMS__C)
                  8037d4e8    00000018     helloWorld_pe66.oe66 (.const:ti_sysbios_knl_Queue_Object__PARAMS__C)
                  8037d500    00000017     stk6_ppp_pppoe.ae66 : ipout.oe66 (.const:.string)
                  8037d517    00000016                         : ipv6out.oe66 (.const:.string)
                  8037d52d    00000013                         : fileuser.oe66 (.const:.string)
                  8037d540    00000011                         : tcp6prot.oe66 (.const:.string)
                  8037d551    00000011                         : tcpprot.oe66 (.const:.string)
                  8037d562    0000000e     os.ae66 : ossys.oe66 (.const:.string)
                  8037d570    00000011     ti.targets.rts6000.ae66 : System.oe66 (.const:digtohex)
                  8037d581    00000001     --HOLE-- [fill = 0]
                  8037d582    00000002     helloWorld_pe66.oe66 (.const:ti_sysbios_knl_Task_Module__id__C)
                  8037d584    00000004     helloWorld_pe66.oe66 (.const:ti_sysbios_family_c64p_Hwi_Module__diagsEnabled__C)
                  8037d588    00000010     ti.drv.pa.ae66 : painit.oe66 (.const:paMemAligns)
                  8037d598    00000010     helloWorld_pe66.oe66 (.const:ti_sysbios_family_c64p_EventCombiner_EVTMASK__C)
                  8037d5a8    0000000e     stk6_ppp_pppoe.ae66 : timer.oe66 (.const:.string)
                  8037d5b6    00000002     helloWorld_pe66.oe66 (.const:ti_sysbios_knl_Task_Module__loggerDefined__C)
                  8037d5b8    0000000c     helloWorld_pe66.oe66 (.const:ti_sysbios_family_c66_Cache_initSize__C)
                  8037d5c4    0000000b     stk6_ppp_pppoe.ae66 : route.oe66 (.const:.string)
                  8037d5cf    00000001     --HOLE-- [fill = 0]
                  8037d5d0    0000000a     ti.platform.evm6678l.ae66 : evm66x_nand.obj (.const:.string:$P$T0$1)
                  8037d5da    00000002     helloWorld_pe66.oe66 (.const:ti_sysbios_knl_Task_deleteTerminatedTasks__C)
                  8037d5dc    00000004     helloWorld_pe66.oe66 (.const:ti_sysbios_family_c64p_Hwi_Module__diagsIncluded__C)
                  8037d5e0    0000000a     ti.platform.evm6678l.ae66 : evm66x_nand.obj (.const:.string:$P$T1$2)
                  8037d5ea    00000002     helloWorld_pe66.oe66 (.const:ti_sysbios_knl_Task_initStackFlag__C)
                  8037d5ec    00000004     helloWorld_pe66.oe66 (.const:ti_sysbios_family_c64p_Hwi_Module__diagsMask__C)
                  8037d5f0    00000008     ti.transport.ndk.nimu.ae66 : nimu_eth.obj (.const:$P$T10$11)
                  8037d5f8    00000008                                : nimu_eth.obj (.const:$P$T5$6)
                  8037d600    00000008     ti.targets.rts6000.ae66 : System.oe66 (.const:.string)
                  8037d608    00000008     helloWorld_pe66.oe66 (.const:ti_sysbios_knl_Idle_funcList__A)
                  8037d610    00000008     helloWorld_pe66.oe66 (.const:ti_sysbios_knl_Idle_funcList__C)
                  8037d618    00000008     helloWorld_pe66.oe66 (.const:ti_sysbios_knl_Task_hooks__C)
                  8037d620    00000008     helloWorld_pe66.oe66 (.const:xdc_runtime_Startup_firstFxns__A)
                  8037d628    00000008     helloWorld_pe66.oe66 (.const:xdc_runtime_Startup_firstFxns__C)
                  8037d630    00000008     helloWorld_pe66.oe66 (.const:xdc_runtime_Startup_lastFxns__A)
                  8037d638    00000008     helloWorld_pe66.oe66 (.const:xdc_runtime_Startup_lastFxns__C)
                  8037d640    00000006     ti.transport.ndk.nimu.ae66 : nimu_eth.obj (.const:.string:$P$T0$1)
                  8037d646    00000002     helloWorld_pe66.oe66 (.const:ti_sysbios_timers_timer64_Timer_Module__id__C)
                  8037d648    00000006     ti.transport.ndk.nimu.ae66 : nimu_eth.obj (.const:.string:$P$T6$7)
                  8037d64e    00000002     helloWorld_pe66.oe66 (.const:ti_sysbios_timers_timer64_Timer_startupNeeded__C)
                  8037d650    00000006     ti.transport.ndk.nimu.ae66 : nimu_eth.obj (.const:.string:$P$T7$8)
                  8037d656    00000002     helloWorld_pe66.oe66 (.const:xdc_runtime_Core_Module__id__C)
                  8037d658    00000004     helloWorld_pe66.oe66 (.const:ti_sysbios_family_c64p_Hwi_Module__loggerFxn1__C)
                  8037d65c    00000004     helloWorld_pe66.oe66 (.const:ti_sysbios_family_c64p_Hwi_Module__loggerFxn8__C)
                  8037d660    00000004     helloWorld_pe66.oe66 (.const:ti_sysbios_family_c64p_Hwi_Module__loggerObj__C)
                  8037d664    00000004     helloWorld_pe66.oe66 (.const:ti_sysbios_family_c66_Cache_atomicBlockSize__C)
                  8037d668    00000004     helloWorld_pe66.oe66 (.const:ti_sysbios_family_c66_tci66xx_CpIntc_E_unpluggedSysInt__C)
                  8037d66c    00000004     helloWorld_pe66.oe66 (.const:ti_sysbios_family_c66_tci66xx_CpIntc_eventId__C)
                  8037d670    00000004     helloWorld_pe66.oe66 (.const:ti_sysbios_family_c66_tci66xx_CpIntc_hostIntToEventId__C)
                  8037d674    00000004     helloWorld_pe66.oe66 (.const:ti_sysbios_family_c66_tci66xx_CpIntc_numEvents__C)
                  8037d678    00000004     helloWorld_pe66.oe66 (.const:ti_sysbios_family_c66_tci66xx_CpIntc_numStatusRegs__C)
                  8037d67c    00000004     helloWorld_pe66.oe66 (.const:ti_sysbios_family_c66_tci66xx_CpIntc_numSysInts__C)
                  8037d680    00000004     helloWorld_pe66.oe66 (.const:ti_sysbios_family_c66_tci66xx_CpIntc_sysIntToHostInt__C)
                  8037d684    00000004     helloWorld_pe66.oe66 (.const:ti_sysbios_gates_GateMutex_A_badContext__C)
                  8037d688    00000004     helloWorld_pe66.oe66 (.const:ti_sysbios_gates_GateMutex_Instance_State_sem__O)
                  8037d68c    00000004     helloWorld_pe66.oe66 (.const:ti_sysbios_gates_GateMutex_Module__diagsEnabled__C)
                  8037d690    00000004     helloWorld_pe66.oe66 (.const:ti_sysbios_gates_GateMutex_Module__diagsIncluded__C)
                  8037d694    00000004     helloWorld_pe66.oe66 (.const:ti_sysbios_gates_GateMutex_Module__diagsMask__C)
                  8037d698    00000004     helloWorld_pe66.oe66 (.const:ti_sysbios_hal_Hwi_E_stackOverflow__C)
                  8037d69c    00000004     helloWorld_pe66.oe66 (.const:ti_sysbios_heaps_HeapBuf_Instance_State_freeList__O)
                  8037d6a0    00000004     helloWorld_pe66.oe66 (.const:ti_sysbios_heaps_HeapBuf_Object__count__C)
                  8037d6a4    00000004     helloWorld_pe66.oe66 (.const:ti_sysbios_heaps_HeapBuf_Object__table__C)
                  8037d6a8    00000004     helloWorld_pe66.oe66 (.const:ti_sysbios_heaps_HeapBuf_numConstructedHeaps__C)
                  8037d6ac    00000004     helloWorld_pe66.oe66 (.const:ti_sysbios_heaps_HeapMem_A_align__C)
                  8037d6b0    00000004     helloWorld_pe66.oe66 (.const:ti_sysbios_heaps_HeapMem_A_heapSize__C)
                  8037d6b4    00000004     helloWorld_pe66.oe66 (.const:ti_sysbios_heaps_HeapMem_A_invalidFree__C)
                  8037d6b8    00000004     helloWorld_pe66.oe66 (.const:ti_sysbios_heaps_HeapMem_A_zeroBlock__C)
                  8037d6bc    00000004     helloWorld_pe66.oe66 (.const:ti_sysbios_heaps_HeapMem_E_memory__C)
                  8037d6c0    00000004     helloWorld_pe66.oe66 (.const:ti_sysbios_heaps_HeapMem_Module__diagsEnabled__C)
                  8037d6c4    00000004     helloWorld_pe66.oe66 (.const:ti_sysbios_heaps_HeapMem_Module__diagsIncluded__C)
                  8037d6c8    00000004     helloWorld_pe66.oe66 (.const:ti_sysbios_heaps_HeapMem_Module__diagsMask__C)
                  8037d6cc    00000004     helloWorld_pe66.oe66 (.const:ti_sysbios_heaps_HeapMem_Module__gateObj__C)
                  8037d6d0    00000004     helloWorld_pe66.oe66 (.const:ti_sysbios_heaps_HeapMem_Object__count__C)
                  8037d6d4    00000004     helloWorld_pe66.oe66 (.const:ti_sysbios_heaps_HeapMem_Object__table__C)
                  8037d6d8    00000004     helloWorld_pe66.oe66 (.const:ti_sysbios_heaps_HeapMem_reqAlignMask__C)
                  8037d6dc    00000004     helloWorld_pe66.oe66 (.const:ti_sysbios_heaps_HeapMem_reqAlign__C)
                  8037d6e0    00000004     helloWorld_pe66.oe66 (.const:ti_sysbios_knl_Clock_A_badThreadType__C)
                  8037d6e4    00000004     helloWorld_pe66.oe66 (.const:ti_sysbios_knl_Clock_LM_begin__C)
                  8037d6e8    00000004     helloWorld_pe66.oe66 (.const:ti_sysbios_knl_Clock_LM_tick__C)
                  8037d6ec    00000004     helloWorld_pe66.oe66 (.const:ti_sysbios_knl_Clock_LW_delayed__C)
                  8037d6f0    00000004     helloWorld_pe66.oe66 (.const:ti_sysbios_knl_Clock_Module_State_clockQ__O)
                  8037d6f4    00000004     helloWorld_pe66.oe66 (.const:ti_sysbios_knl_Clock_Module__diagsEnabled__C)
                  8037d6f8    00000004     helloWorld_pe66.oe66 (.const:ti_sysbios_knl_Clock_Module__diagsIncluded__C)
                  8037d6fc    00000004     helloWorld_pe66.oe66 (.const:ti_sysbios_knl_Clock_Module__diagsMask__C)
                  8037d700    00000004     helloWorld_pe66.oe66 (.const:ti_sysbios_knl_Clock_Module__loggerFxn1__C)
                  8037d704    00000004     helloWorld_pe66.oe66 (.const:ti_sysbios_knl_Clock_Module__loggerFxn2__C)
                  8037d708    00000004     helloWorld_pe66.oe66 (.const:ti_sysbios_knl_Clock_Module__loggerObj__C)
                  8037d70c    00000004     helloWorld_pe66.oe66 (.const:ti_sysbios_knl_Clock_tickMode__C)
                  8037d710    00000004     helloWorld_pe66.oe66 (.const:ti_sysbios_knl_Clock_tickSource__C)
                  8037d714    00000004     helloWorld_pe66.oe66 (.const:ti_sysbios_knl_Queue_Object__count__C)
                  8037d718    00000004     helloWorld_pe66.oe66 (.const:ti_sysbios_knl_Queue_Object__table__C)
                  8037d71c    00000004     helloWorld_pe66.oe66 (.const:ti_sysbios_knl_Semaphore_A_badContext__C)
                  8037d720    00000004     helloWorld_pe66.oe66 (.const:ti_sysbios_knl_Semaphore_A_noEvents__C)
                  8037d724    00000004     helloWorld_pe66.oe66 (.const:ti_sysbios_knl_Semaphore_A_overflow__C)
                  8037d728    00000004     helloWorld_pe66.oe66 (.const:ti_sysbios_knl_Semaphore_Instance_State_pendQ__O)
                  8037d72c    00000004     helloWorld_pe66.oe66 (.const:ti_sysbios_knl_Semaphore_LM_pend__C)
                  8037d730    00000004     helloWorld_pe66.oe66 (.const:ti_sysbios_knl_Semaphore_LM_post__C)
                  8037d734    00000004     helloWorld_pe66.oe66 (.const:ti_sysbios_knl_Semaphore_Module__diagsEnabled__C)
                  8037d738    00000004     helloWorld_pe66.oe66 (.const:ti_sysbios_knl_Semaphore_Module__diagsIncluded__C)
                  8037d73c    00000004     helloWorld_pe66.oe66 (.const:ti_sysbios_knl_Semaphore_Module__diagsMask__C)
                  8037d740    00000004     helloWorld_pe66.oe66 (.const:ti_sysbios_knl_Semaphore_Module__loggerFxn2__C)
                  8037d744    00000004     helloWorld_pe66.oe66 (.const:ti_sysbios_knl_Semaphore_Module__loggerFxn4__C)
                  8037d748    00000004     helloWorld_pe66.oe66 (.const:ti_sysbios_knl_Semaphore_Module__loggerObj__C)
                  8037d74c    00000004     helloWorld_pe66.oe66 (.const:ti_sysbios_knl_Swi_LD_end__C)
                  8037d750    00000004     helloWorld_pe66.oe66 (.const:ti_sysbios_knl_Swi_LM_begin__C)
                  8037d754    00000004     helloWorld_pe66.oe66 (.const:ti_sysbios_knl_Swi_LM_post__C)
                  8037d758    00000004     helloWorld_pe66.oe66 (.const:ti_sysbios_knl_Swi_Module__diagsEnabled__C)
                  8037d75c    00000004     helloWorld_pe66.oe66 (.const:ti_sysbios_knl_Swi_Module__diagsIncluded__C)
                  8037d760    00000004     helloWorld_pe66.oe66 (.const:ti_sysbios_knl_Swi_Module__diagsMask__C)
                  8037d764    00000004     helloWorld_pe66.oe66 (.const:ti_sysbios_knl_Swi_Module__loggerFxn1__C)
                  8037d768    00000004     helloWorld_pe66.oe66 (.const:ti_sysbios_knl_Swi_Module__loggerFxn4__C)
                  8037d76c    00000004     helloWorld_pe66.oe66 (.const:ti_sysbios_knl_Swi_Module__loggerObj__C)
                  8037d770    00000004     helloWorld_pe66.oe66 (.const:ti_sysbios_knl_Swi_Object__count__C)
                  8037d774    00000004     helloWorld_pe66.oe66 (.const:ti_sysbios_knl_Swi_Object__table__C)
                  8037d778    00000004     helloWorld_pe66.oe66 (.const:ti_sysbios_knl_Task_A_badPriority__C)
                  8037d77c    00000004     helloWorld_pe66.oe66 (.const:ti_sysbios_knl_Task_A_badTaskState__C)
                  8037d780    00000004     helloWorld_pe66.oe66 (.const:ti_sysbios_knl_Task_A_badThreadType__C)
                  8037d784    00000004     helloWorld_pe66.oe66 (.const:ti_sysbios_knl_Task_A_badTimeout__C)
                  8037d788    00000004     helloWorld_pe66.oe66 (.const:ti_sysbios_knl_Task_A_noPendElem__C)
                  8037d78c    00000004     helloWorld_pe66.oe66 (.const:ti_sysbios_knl_Task_E_spOutOfBounds__C)
                  8037d790    00000004     helloWorld_pe66.oe66 (.const:ti_sysbios_knl_Task_E_stackOverflow__C)
                  8037d794    00000004     helloWorld_pe66.oe66 (.const:ti_sysbios_knl_Task_LD_block__C)
                  8037d798    00000004     helloWorld_pe66.oe66 (.const:ti_sysbios_knl_Task_LD_exit__C)
                  8037d79c    00000004     helloWorld_pe66.oe66 (.const:ti_sysbios_knl_Task_LD_ready__C)
                  8037d7a0    00000004     helloWorld_pe66.oe66 (.const:ti_sysbios_knl_Task_LM_setPri__C)
                  8037d7a4    00000004     helloWorld_pe66.oe66 (.const:ti_sysbios_knl_Task_LM_sleep__C)
                  8037d7a8    00000004     helloWorld_pe66.oe66 (.const:ti_sysbios_knl_Task_LM_switch__C)
                  8037d7ac    00000004     helloWorld_pe66.oe66 (.const:ti_sysbios_knl_Task_Module_State_inactiveQ__O)
                  8037d7b0    00000004     helloWorld_pe66.oe66 (.const:ti_sysbios_knl_Task_Module_State_terminatedQ__O)
                  8037d7b4    00000004     helloWorld_pe66.oe66 (.const:ti_sysbios_knl_Task_Module__diagsEnabled__C)
                  8037d7b8    00000004     helloWorld_pe66.oe66 (.const:ti_sysbios_knl_Task_Module__diagsIncluded__C)
                  8037d7bc    00000004     helloWorld_pe66.oe66 (.const:ti_sysbios_knl_Task_Module__diagsMask__C)
                  8037d7c0    00000004     helloWorld_pe66.oe66 (.const:ti_sysbios_knl_Task_Module__loggerFxn2__C)
                  8037d7c4    00000004     helloWorld_pe66.oe66 (.const:ti_sysbios_knl_Task_Module__loggerFxn4__C)
                  8037d7c8    00000004     helloWorld_pe66.oe66 (.const:ti_sysbios_knl_Task_Module__loggerObj__C)
                  8037d7cc    00000004     helloWorld_pe66.oe66 (.const:ti_sysbios_knl_Task_Object__count__C)
                  8037d7d0    00000004     helloWorld_pe66.oe66 (.const:ti_sysbios_knl_Task_Object__heap__C)
                  8037d7d4    00000004     helloWorld_pe66.oe66 (.const:ti_sysbios_knl_Task_Object__table__C)
                  8037d7d8    00000004     helloWorld_pe66.oe66 (.const:ti_sysbios_knl_Task_allBlockedFunc__C)
                  8037d7dc    00000004     helloWorld_pe66.oe66 (.const:ti_sysbios_knl_Task_defaultStackHeap__C)
                  8037d7e0    00000004     helloWorld_pe66.oe66 (.const:ti_sysbios_knl_Task_defaultStackSize__C)
                  8037d7e4    00000004     helloWorld_pe66.oe66 (.const:ti_sysbios_knl_Task_numConstructedTasks__C)
                  8037d7e8    00000004     helloWorld_pe66.oe66 (.const:ti_sysbios_knl_Task_numPriorities__C)
                  8037d7ec    00000004     helloWorld_pe66.oe66 (.const:ti_sysbios_timers_timer64_Timer_A_notAvailable__C)
                  8037d7f0    00000004     helloWorld_pe66.oe66 (.const:ti_sysbios_timers_timer64_Timer_E_cannotSupport__C)
                  8037d7f4    00000004     helloWorld_pe66.oe66 (.const:ti_sysbios_timers_timer64_Timer_Module__diagsEnabled__C)
                  8037d7f8    00000004     helloWorld_pe66.oe66 (.const:ti_sysbios_timers_timer64_Timer_Module__diagsIncluded__C)
                  8037d7fc    00000004     helloWorld_pe66.oe66 (.const:ti_sysbios_timers_timer64_Timer_Module__diagsMask__C)
                  8037d800    00000004     helloWorld_pe66.oe66 (.const:ti_sysbios_timers_timer64_Timer_anyMask__C)
                  8037d804    00000004     helloWorld_pe66.oe66 (.const:ti_sysbios_timers_timer64_Timer_freqDivisor__C)
                  8037d808    00000004     helloWorld_pe66.oe66 (.const:ti_sysbios_timers_timer64_Timer_numLocalTimers__C)
                  8037d80c    00000004     helloWorld_pe66.oe66 (.const:ti_sysbios_timers_timer64_Timer_numTimerDevices__C)
                  8037d810    00000004     helloWorld_pe66.oe66 (.const:xdc_runtime_Assert_E_assertFailed__C)
                  8037d814    00000004     helloWorld_pe66.oe66 (.const:xdc_runtime_Core_A_initializedParams__C)
                  8037d818    00000004     helloWorld_pe66.oe66 (.const:xdc_runtime_Core_Module__diagsEnabled__C)
                  8037d81c    00000004     helloWorld_pe66.oe66 (.const:xdc_runtime_Core_Module__diagsIncluded__C)
                  8037d820    00000004     helloWorld_pe66.oe66 (.const:xdc_runtime_Core_Module__diagsMask__C)
                  8037d824    00000004     helloWorld_pe66.oe66 (.const:xdc_runtime_Error_E_generic__C)
                  8037d828    00000004     helloWorld_pe66.oe66 (.const:xdc_runtime_Error_E_memory__C)
                  8037d82c    00000004     helloWorld_pe66.oe66 (.const:xdc_runtime_Error_Module__diagsEnabled__C)
                  8037d830    00000004     helloWorld_pe66.oe66 (.const:xdc_runtime_Error_Module__diagsIncluded__C)
                  8037d834    00000004     helloWorld_pe66.oe66 (.const:xdc_runtime_Error_Module__diagsMask__C)
                  8037d838    00000004     helloWorld_pe66.oe66 (.const:xdc_runtime_Error_Module__loggerFxn8__C)
                  8037d83c    00000004     helloWorld_pe66.oe66 (.const:xdc_runtime_Error_Module__loggerObj__C)
                  8037d840    00000004     helloWorld_pe66.oe66 (.const:xdc_runtime_Error_policy__C)
                  8037d844    00000004     helloWorld_pe66.oe66 (.const:xdc_runtime_Error_raiseHook__C)
                  8037d848    00000004     helloWorld_pe66.oe66 (.const:xdc_runtime_IFilterLogger_Interface__BASE__C)
                  8037d84c    00000004     helloWorld_pe66.oe66 (.const:xdc_runtime_IGateProvider_Interface__BASE__C)
                  8037d850    00000004     helloWorld_pe66.oe66 (.const:xdc_runtime_IHeap_Interface__BASE__C)
                  8037d854    00000004     helloWorld_pe66.oe66 (.const:xdc_runtime_ILogger_Interface__BASE__C)
                  8037d858    00000004     helloWorld_pe66.oe66 (.const:xdc_runtime_IModule_Interface__BASE__C)
                  8037d85c    00000004     helloWorld_pe66.oe66 (.const:xdc_runtime_Log_L_error__C)
                  8037d860    00000004     helloWorld_pe66.oe66 (.const:xdc_runtime_LoggerBuf_E_badLevel__C)
                  8037d864    00000004     helloWorld_pe66.oe66 (.const:xdc_runtime_LoggerBuf_Module__gateObj__C)
                  8037d868    00000004     helloWorld_pe66.oe66 (.const:xdc_runtime_LoggerBuf_Object__count__C)
                  8037d86c    00000004     helloWorld_pe66.oe66 (.const:xdc_runtime_LoggerBuf_Object__table__C)
                  8037d870    00000004     helloWorld_pe66.oe66 (.const:xdc_runtime_LoggerBuf_statusLogger__C)
                  8037d874    00000004     helloWorld_pe66.oe66 (.const:xdc_runtime_Memory_defaultHeapInstance__C)
                  8037d878    00000004     helloWorld_pe66.oe66 (.const:xdc_runtime_Startup_execImpl__C)
                  8037d87c    00000004     helloWorld_pe66.oe66 (.const:xdc_runtime_Startup_maxPasses__C)
                  8037d880    00000004     helloWorld_pe66.oe66 (.const:xdc_runtime_Startup_sfxnRts__C)
                  8037d884    00000004     helloWorld_pe66.oe66 (.const:xdc_runtime_Startup_sfxnTab__C)
                  8037d888    00000004     helloWorld_pe66.oe66 (.const:xdc_runtime_Startup_startModsFxn__C)
                  8037d88c    00000004     helloWorld_pe66.oe66 (.const:xdc_runtime_System_Module__gateObj__C)
                  8037d890    00000004     helloWorld_pe66.oe66 (.const:xdc_runtime_System_extendFxn__C)
                  8037d894    00000004     helloWorld_pe66.oe66 (.const:xdc_runtime_System_maxAtexitHandlers__C)
                  8037d898    00000004     helloWorld_pe66.oe66 (.const:xdc_runtime_Text_charTab__C)
                  8037d89c    00000004     helloWorld_pe66.oe66 (.const:xdc_runtime_Text_nameEmpty__C)
                  8037d8a0    00000004     helloWorld_pe66.oe66 (.const:xdc_runtime_Text_nameStatic__C)
                  8037d8a4    00000004     helloWorld_pe66.oe66 (.const:xdc_runtime_Text_nameUnknown__C)
                  8037d8a8    00000004     helloWorld_pe66.oe66 (.const:xdc_runtime_Text_nodeTab__C)
                  8037d8ac    00000004     helloWorld_pe66.oe66 (.const:xdc_runtime_Text_visitRopeFxn__C)
                  8037d8b0    00000002     helloWorld_pe66.oe66 (.const:xdc_runtime_Error_Module__loggerDefined__C)
                  8037d8b2    00000002     helloWorld_pe66.oe66 (.const:xdc_runtime_Error_maxDepth__C)
                  8037d8b4    00000002     helloWorld_pe66.oe66 (.const:xdc_runtime_LoggerBuf_Module__id__C)
                  8037d8b6    00000002     helloWorld_pe66.oe66 (.const:xdc_runtime_LoggerBuf_filterByLevel__C)
                  8037d8b8    00000002     helloWorld_pe66.oe66 (.const:xdc_runtime_Memory_Module__id__C)
                  8037d8ba    00000002     helloWorld_pe66.oe66 (.const:xdc_runtime_Text_charCnt__C)
                  8037d8bc    00000002     helloWorld_pe66.oe66 (.const:xdc_runtime_Text_isLoaded__C)
                  8037d8be    00000002     helloWorld_pe66.oe66 (.const:xdc_runtime_Text_registryModsLastId__C)
                  8037d8c0    00000002     helloWorld_pe66.oe66 (.const:xdc_runtime_Text_unnamedModsLastId__C)

.fardata.1 
*          0    8037d8d0    00000030     
                  8037d8d0    00000030     ADS1298_drv.obj (.fardata)

.qmss      0    8037d900    00002400     UNINITIALIZED
                  8037d900    00002400     ti.drv.qmss.ae66 : qmss_drv.oe66 (.qmss)

.fardata.2 
*          0    8037fd00    00001c46     
                  8037fd00    000005fc     helloWorld_pe66.oe66 (.fardata)
                  803802fc    00000004     rts6600_elf.lib : defs.obj (.fardata)
                  80380300    00000500     helloWorld_pe66.oe66 (.fardata:ti_sysbios_family_c66_tci66xx_CpIntc_Module_State_0_dispatchTab__A)
                  80380800    000001e0     rts6600_elf.lib : defs.obj (.fardata:_ftable)
                  803809e0    00000180     helloWorld_pe66.oe66 (.fardata:ti_sysbios_timers_timer64_Timer_Module_State_0_device__A)
                  80380b60    00000120     resourcemgr.obj (.fardata:qmssGblCfgParams)
                  80380c80    00000120     helloWorld_pe66.oe66 (.fardata:ti_sysbios_knl_Task_Object__table__V)
                  80380da0    000000b4     stk6_ppp_pppoe.ae66 : exec.oe66 (.fardata)
                  80380e54    00000004     rts6600_elf.lib : dtor_list.obj (.fardata)
                  80380e58    000000a0                     : lowlev.obj (.fardata:_stream)
                  80380ef8    00000080     helloWorld_pe66.oe66 (.fardata:ti_sysbios_knl_Swi_Module_State_0_readyQ__A)
                  80380f78    00000080     helloWorld_pe66.oe66 (.fardata:ti_sysbios_knl_Task_Module_State_0_readyQ__A)
                  80380ff8    00000080     helloWorld_pe66.oe66 (.fardata:ti_sysbios_timers_timer64_Timer_Module_State_0_gctrl__A)
                  80381078    00000080     helloWorld_pe66.oe66 (.fardata:ti_sysbios_timers_timer64_Timer_Module_State_0_handles__A)
                  803810f8    00000080     helloWorld_pe66.oe66 (.fardata:ti_sysbios_timers_timer64_Timer_Module_State_0_intFreqs__A)
                  80381178    00000078     rts6600_elf.lib : lowlev.obj (.fardata:_device)
                  803811f0    00000078     resourcemgr.obj (.fardata:cppiGblCfgParams)
                  80381268    00000078     helloWorld_pe66.oe66 (.fardata:ti_sysbios_family_c64p_Hwi_Object__table__V)
                  803812e0    00000050     stk6_ppp_pppoe.ae66 : exec.oe66 (.fardata:tasks)
                  80381330    0000004d     nettool.ae66 : dhcptags.oe66 (.fardata:DHCPTypeCode)
                  8038137d    00000003     --HOLE--
                  80381380    0000004c     helloWorld_pe66.oe66 (.fardata:ti_sysbios_family_c66_tci66xx_CpIntc_Module_State_0_hostIntToSysInt__A)
                  803813cc    00000004     ti.drv.cppi.ae66 : cppi_drv.oe66 (.fardata)
                  803813d0    0000004c     helloWorld_pe66.oe66 (.fardata:ti_sysbios_timers_timer64_Timer_Object__table__V)
                  8038141c    00000004     ti.drv.pa.ae66 : painit.oe66 (.fardata)
                  80381420    00000040     netctrl.ae66 : netsrv.oe66 (.fardata:CloseOrder)
                  80381460    00000040                  : netsrv.oe66 (.fardata:OpenOrder)
                  803814a0    00000040     stk6_ppp_pppoe.ae66 : md5.oe66 (.fardata:PADDING)
                  803814e0    00000040     nettool.ae66 : httpsend.oe66 (.fardata:codestr)
                  80381520    00000040     KeyStone_common.obj (.fardata:gstruMpuAddrRange)
                  80381560    00000040     helloWorld_pe66.oe66 (.fardata:ti_sysbios_gates_GateMutex_Object__table__V)
                  803815a0    00000034     stk6_ppp_pppoe.ae66 : tcp6time.oe66 (.fardata:tcp_backoff)
                  803815d4    0000000c     rts6600_elf.lib : exit.obj (.fardata)
                  803815e0    00000034     stk6_ppp_pppoe.ae66 : tcptime.oe66 (.fardata:tcp_backoff)
                  80381614    00000004     --HOLE--
                  80381618    00000030     helloWorld_pe66.oe66 (.fardata:ti_sysbios_knl_Swi_Object__table__V)
                  80381648    00000028     KeyStone_common.obj (.fardata:gpEDMA_TC_regs)
                  80381670    00000024     KeyStone_common.obj (.fardata:gpTimerRegs)
                  80381694    00000004     --HOLE--
                  80381698    00000024     KeyStone_common.obj (.fardata:internal_exception_str)
                  803816bc    00000024     os.ae66 : ossys.oe66 (.fardata)
                  803816e0    00000024     helloWorld_pe66.oe66 (.fardata:xdc_runtime_LoggerBuf_Object__table__V)
                  80381704    00000004     --HOLE--
                  80381708    00000020     ti.drv.qmss.ae66 : qmss_drv.oe66 (.fardata:Qmss_highEoiVector)
                  80381728    00000020     KeyStone_common.obj (.fardata:bus_err_stat_str)
                  80381748    00000020     KeyStone_common.obj (.fardata:gCIC_EXC_EN_MASK)
                  80381768    00000020     KeyStone_common.obj (.fardata:gpMPU_regs)
                  80381788    00000008     ti.transport.ndk.nimu.ae66 : nimu_eth.obj (.fardata:NIMUDeviceTable)
                  80381790    00000020     stk6_ppp_pppoe.ae66 : rtc.oe66 (.fardata:pstrMsgName)
                  803817b0    00000020     helloWorld_pe66.oe66 (.fardata:xdc_runtime_System_Module_State_0_atexitHandlers__A)
                  803817d0    00000018     KeyStone_common.obj (.fardata:Peri_MPU_err_type_str)
                  803817e8    00000018     helloWorld.obj (.fardata:TaskName)
                  80381800    00000018     helloWorld_pe66.oe66 (.fardata:ti_sysbios_knl_Semaphore_Object__table__V)
                  80381818    00000014     helloWorld.obj (.fardata:ReportStr)
                  8038182c    00000004     --HOLE--
                  80381830    00000014     helloWorld.obj (.fardata:StatusStr)
                  80381844    00000004     --HOLE--
                  80381848    00000008     KeyStone_common.obj (.fardata:Ns_str)
                  80381850    00000014     stk6_ppp_pppoe.ae66 : sock6pcb.oe66 (.fardata:pSockList)
                  80381864    00000008     rts6600_elf.lib : _lock.obj (.fardata)
                  8038186c    00000004     --HOLE--
                  80381870    00000014     stk6_ppp_pppoe.ae66 : sockpcb.oe66 (.fardata:pSockList)
                  80381884    00000004     --HOLE--
                  80381888    00000014     helloWorld_pe66.oe66 (.fardata:ti_sysbios_family_c66_tci66xx_CpIntc_Module_State_0_initSIER__A)
                  8038189c    00000004     --HOLE--
                  803818a0    00000014     helloWorld_pe66.oe66 (.fardata:ti_sysbios_heaps_HeapMem_Object__table__V)
                  803818b4    00000004     --HOLE--
                  803818b8    00000010     ti.drv.qmss.ae66 : qmss_drv.oe66 (.fardata:Qmss_lowEoiVector)
                  803818c8    00000010     SPI_Intc.obj (.fardata:spi_int_str)
                  803818d8    00000010     helloWorld_pe66.oe66 (.fardata:ti_sysbios_family_c66_tci66xx_CpIntc_Module_State_0_controller__A)
                  803818e8    0000000c     KeyStone_common.obj (.fardata:gpEDMA_CC_regs)
                  803818f4    00000004     --HOLE--
                  803818f8    00000008     helloWorld_pe66.oe66 (.fardata:ti_sysbios_hal_Hwi_Object__table__V)
                  80381900    0000000b     stk6_ppp_pppoe.ae66 : tcp6out.oe66 (.fardata:tcp_outflags)
                  8038190b    00000005     --HOLE--
                  80381910    0000000b                         : tcpout.oe66 (.fardata:tcp_outflags)
                  8038191b    00000005     --HOLE--
                  80381920    00000008     helloWorld_pe66.oe66 (.fardata:ti_sysbios_hal_Timer_Object__table__V)
                  80381928    00000004     helloWorld_pe66.oe66 (.fardata:ti_sysbios_gates_GateHwi_Object__table__V)
                  8038192c    00000004     --HOLE--
                  80381930    00000006     stk6_ppp_pppoe.ae66 : nimupppoe.oe66 (.fardata:MacBCast)
                  80381936    00000002     --HOLE--
                  80381938    00000002     ti.drv.qmss.ae66 : qmss_drv.oe66 (.fardata:Qmss_cdmaEoiVector)
                  8038193a    00000006     --HOLE--
                  80381940    00000006     stk6_ppp_pppoe.ae66 : lliout.oe66 (.fardata:bEtherBCast)

platform_lib 
*          0    80381948    00001370     
                  80381948    00001058     ti.platform.evm6678l.ae66 : platform.obj (platform_lib:uninit) [fill = 0]
                  803829a0    00000210                               : evm66x_nand.obj (platform_lib) [fill = 0]
                  80382bb0    00000108                               : platform.obj (platform_lib:init)

.switch.1 
*          0    80382cb8    00000344     
                  80382cb8    00000070     ti.csl.ae66 : csl_chip.oe66 (.switch:CSL_chipReadReg)
                  80382d28    00000060     nettool.ae66 : telnetd.oe66 (.switch:telnet_netdata)
                  80382d88    0000003c     stk6_ppp_pppoe.ae66 : sock.oe66 (.switch:SockSet)
                  80382dc4    00000038                         : icmpin.oe66 (.switch:ICMPInput)
                  80382dfc    00000038                         : icmpv6in.oe66 (.switch:ICMPv6RxPacket)
                  80382e34    00000034                         : rawethsock.oe66 (.switch:RawEthSockSet)
                  80382e68    0000002c                         : sock6.oe66 (.switch:Sock6Set)
                  80382e94    0000002c     ti.drv.pa.ae66 : pa.oe66 (.switch:pa_conv_routing_info)
                  80382ec0    00000028     stk6_ppp_pppoe.ae66 : lcp.oe66 (.switch:lcpInput)
                  80382ee8    00000020                         : tcp6prot.oe66 (.switch:TCP6PrSetOption)
                  80382f08    00000020                         : tcpprot.oe66 (.switch:TcpPrSetOption)
                  80382f28    00000020                         : ipcp.oe66 (.switch:ipcpInput)
                  80382f48    00000020     ti.platform.evm6678l.ae66 : platform.obj (.switch:platform_internal_memory_test)
                  80382f68    0000001c     stk6_ppp_pppoe.ae66 : sock6int.oe66 (.switch:Sock6Notify)
                  80382f84    0000001c                         : sockint.oe66 (.switch:SockNotify)
                  80382fa0    0000001c     nettool.ae66 : dhcpsm.oe66 (.switch:dhcpState)
                  80382fbc    00000018     stk6_ppp_pppoe.ae66 : nimuppp.oe66 (.switch:pppEvent)
                  80382fd4    00000014                         : icmpv6in.oe66 (.switch:ICMPv6RecvDstUnreachable)
                  80382fe8    00000014                         : lli6.oe66 (.switch:LLI6TimerCheck)

.vecs      0    80383000    00000200     
                  80383000    00000200     helloWorld_pe66.oe66 (.vecs)

.switch.2 
*          0    80383200    00000078     
                  80383200    00000014     stk6_ppp_pppoe.ae66 : nimu.oe66 (.switch:NIMUIoctl)
                  80383214    00000014                         : lcp.oe66 (.switch:lcpSendCfg)
                  80383228    00000010                         : ipv6_exthdrs.oe66 (.switch:IPv6ParseHopOptions)
                  80383238    00000010                         : auth.oe66 (.switch:chapInput)
                  80383248    00000010     nettool.ae66 : inetaddr.oe66 (.switch:inet_aton)
                  80383258    00000010     stk6_ppp_pppoe.ae66 : ipcp.oe66 (.switch:ipcpSendCfg)
                  80383268    00000010                         : nimupppoe.oe66 (.switch:pppoeCtrlMsg)

.bss       0    80383278    0000006c     UNINITIALIZED
                  80383278    00000018     hal_timer_bios.ae66 : lltimer.oe66 (.bss)
                  80383290    00000014     stk6_ppp_pppoe.ae66 : igmp.oe66 (.bss)
                  803832a4    0000000c     ti.transport.ndk.nimu.ae66 : nimu_eth.obj (.bss)
                  803832b0    00000008     netctrl.ae66 : netctrl.oe66 (.bss)
                  803832b8    00000008     nettool.ae66 : daemon.oe66 (.bss)
                  803832c0    00000008     stk6_ppp_pppoe.ae66 : ip.oe66 (.bss)
                  803832c8    00000008                         : nimupppoe.oe66 (.bss)
                  803832d0    00000004     nettool.ae66 : ipaddr.oe66 (.bss)
                  803832d4    00000004     stk6_ppp_pppoe.ae66 : ipv6_frag.oe66 (.bss)
                  803832d8    00000004                         : lli6.oe66 (.bss)
                  803832dc    00000004                         : rtable.oe66 (.bss)
                  803832e0    00000004     ti.platform.evm6678l.ae66 : evmc66x_spi.obj (.bss)

.neardata 
*          0    803832e4    00000269     
                  803832e4    000000b8     KeyStone_common.obj (.neardata)
                  8038339c    00000044     nettool.ae66 : httpstr.oe66 (.neardata)
                  803833e0    00000024     os.ae66 : mem.oe66 (.neardata)
                  80383404    00000020     helloWorld.obj (.neardata)
                  80383424    00000018     netctrl.ae66 : netctrl.oe66 (.neardata)
                  8038343c    00000018     os.ae66 : task.oe66 (.neardata)
                  80383454    00000014     stk6_ppp_pppoe.ae66 : rtable.oe66 (.neardata)
                  80383468    00000010     nettool.ae66 : daemon.oe66 (.neardata)
                  80383478    00000010     stk6_ppp_pppoe.ae66 : bind6.oe66 (.neardata)
                  80383488    00000010                         : igmp.oe66 (.neardata)
                  80383498    0000000c                         : route6.oe66 (.neardata)
                  803834a4    00000008     os.ae66 : ossys.oe66 (.neardata)
                  803834ac    00000008     stk6_ppp_pppoe.ae66 : exec.oe66 (.neardata)
                  803834b4    00000008                         : icmp.oe66 (.neardata)
                  803834bc    00000008                         : ip.oe66 (.neardata)
                  803834c4    00000008                         : ipin.oe66 (.neardata)
                  803834cc    00000008                         : ipv6_frag.oe66 (.neardata)
                  803834d4    00000008                         : lli.oe66 (.neardata)
                  803834dc    00000008                         : nimupppoe.oe66 (.neardata)
                  803834e4    00000008                         : rtc.oe66 (.neardata)
                  803834ec    00000008                         : tcp.oe66 (.neardata)
                  803834f4    00000008                         : tcp6.oe66 (.neardata)
                  803834fc    00000008                         : timer.oe66 (.neardata)
                  80383504    00000008     ti.platform.evm6678l.ae66 : platform.obj (.neardata)
                  8038350c    00000004     KeyStone_SPI_Init_drv.obj (.neardata)
                  80383510    00000004     SPI_Intc.obj (.neardata)
                  80383514    00000004     hal_timer_bios.ae66 : lltimer.oe66 (.neardata)
                  80383518    00000004     netctrl.ae66 : netsrv.oe66 (.neardata)
                  8038351c    00000004     nettool.ae66 : config.oe66 (.neardata)
                  80383520    00000004                  : httpsend.oe66 (.neardata)
                  80383524    00000004     os.ae66 : efs.oe66 (.neardata)
                  80383528    00000004     stk6_ppp_pppoe.ae66 : bind.oe66 (.neardata)
                  8038352c    00000004                         : ipfrag.oe66 (.neardata)
                  80383530    00000004                         : lli6.oe66 (.neardata)
                  80383534    00000004                         : mld.oe66 (.neardata)
                  80383538    00000004                         : node.oe66 (.neardata)
                  8038353c    00000004                         : pbm.oe66 (.neardata)
                  80383540    00000004                         : sock6pcb.oe66 (.neardata)
                  80383544    00000004                         : sockpcb.oe66 (.neardata)
                  80383548    00000002     ti.transport.ndk.nimu.ae66 : nimu_eth.obj (.neardata)
                  8038354a    00000002     --HOLE-- [fill = 0]
                  8038354c    00000001     ti.drv.qmss.ae66 : qmss_drv.oe66 (.neardata)

.rodata    0    80383550    0000004c     
                  80383550    00000024     stk6_ppp_pppoe.ae66 : ipv6.oe66 (.rodata)
                  80383574    00000010     helloWorld_pe66.oe66 (.rodata)
                  80383584    00000010     os.ae66 : mem_data.oe66 (.rodata)
                  80383594    00000008     stk6_ppp_pppoe.ae66 : pbm_data.oe66 (.rodata)

.cppi      0    80383600    00000200     UNINITIALIZED
                  80383600    00000200     ti.drv.cppi.ae66 : cppi_drv.oe66 (.cppi)

.cio       0    80383800    00000120     UNINITIALIZED
                  80383800    00000120     rts6600_elf.lib : trgmsg.obj (.cio)

.cinit     0    80383920    00001858     
                  80383920    000014dc     (.cinit..fardata.2.load) [load image, compression = rle]
                  80384dfc    00000146     (.cinit..neardata.load) [load image, compression = rle]
                  80384f42    00000002     --HOLE-- [fill = 0]
                  80384f44    0000009f     (.cinit.platform_lib.load) [load image, compression = rle]
                  80384fe3    00000001     --HOLE-- [fill = 0]
                  80384fe4    00000050     (.cinit..rodata.load) [load image, compression = rle]
                  80385034    00000036     (.cinit..far.load) [load image, compression = rle]
                  8038506a    00000002     --HOLE-- [fill = 0]
                  8038506c    00000019     (.cinit..fardata.1.load) [load image, compression = rle]
                  80385085    00000003     --HOLE-- [fill = 0]
                  80385088    0000000c     (__TI_handler_table)
                  80385094    0000000b     (.cinit..nimu_eth_ll2.load) [load image, compression = rle]
                  8038509f    00000001     --HOLE-- [fill = 0]
                  803850a0    00000008     (.cinit..bss.load) [load image, compression = zero_init]
                  803850a8    00000008     (.cinit..cppi.load) [load image, compression = zero_init]
                  803850b0    00000008     (.cinit..far:NDK_OBJMEM.load) [load image, compression = zero_init]
                  803850b8    00000008     (.cinit..far:NDK_PACKETMEM.load) [load image, compression = zero_init]
                  803850c0    00000008     (.cinit..far:taskStackSection.load) [load image, compression = zero_init]
                  803850c8    00000008     (.cinit..qmss.load) [load image, compression = zero_init]
                  803850d0    00000008     (.cinit..resmgr_handles.load) [load image, compression = zero_init]
                  803850d8    00000008     (.cinit..resmgr_memregion.load) [load image, compression = zero_init]
                  803850e0    00000008     (.cinit..resmgr_pa.load) [load image, compression = zero_init]
                  803850e8    00000008     (.cinit.systemHeap.load) [load image, compression = zero_init]
                  803850f0    00000088     (__TI_cinit_table)


LINKER GENERATED COPY TABLES

__TI_cinit_table @ 803850f0 records: 17, size/record: 8, table size: 136
	.fardata.2: load addr=80383920, load size=000014dc bytes, run addr=8037fd00, run size=00001c46 bytes, compression=rle
	.neardata: load addr=80384dfc, load size=00000146 bytes, run addr=803832e4, run size=00000269 bytes, compression=rle
	platform_lib: load addr=80384f44, load size=0000009f bytes, run addr=80381948, run size=00001370 bytes, compression=rle
	.rodata: load addr=80384fe4, load size=00000050 bytes, run addr=80383550, run size=0000004c bytes, compression=rle
	.far: load addr=80385034, load size=00000036 bytes, run addr=80364840, run size=0000db80 bytes, compression=rle
	.fardata.1: load addr=8038506c, load size=00000019 bytes, run addr=8037d8d0, run size=00000030 bytes, compression=rle
	.nimu_eth_ll2: load addr=80385094, load size=0000000b bytes, run addr=0085da00, run size=00000318 bytes, compression=rle
	.bss: load addr=803850a0, load size=00000008 bytes, run addr=80383278, run size=0000006c bytes, compression=zero_init
	.cppi: load addr=803850a8, load size=00000008 bytes, run addr=80383600, run size=00000200 bytes, compression=zero_init
	.far:NDK_OBJMEM: load addr=803850b0, load size=00000008 bytes, run addr=0085d390, run size=00000600 bytes, compression=zero_init
	.far:NDK_PACKETMEM: load addr=803850b8, load size=00000008 bytes, run addr=00800000, run size=00052b00 bytes, compression=zero_init
	.far:taskStackSection: load addr=803850c0, load size=00000008 bytes, run addr=00852b00, run size=00004400 bytes, compression=zero_init
	.qmss: load addr=803850c8, load size=00000008 bytes, run addr=8037d900, run size=00002400 bytes, compression=zero_init
	.resmgr_handles: load addr=803850d0, load size=00000008 bytes, run addr=0085dd20, run size=000000a0 bytes, compression=zero_init
	.resmgr_memregion: load addr=803850d8, load size=00000008 bytes, run addr=00856f00, run size=00004000 bytes, compression=zero_init
	.resmgr_pa: load addr=803850e0, load size=00000008 bytes, run addr=0085af00, run size=00001488 bytes, compression=zero_init
	systemHeap: load addr=803850e8, load size=00000008 bytes, run addr=80000000, run size=00300000 bytes, compression=zero_init


LINKER GENERATED HANDLER TABLE

__TI_handler_table @ 80385088 records: 3, size/record: 4, table size: 12
	index: 0, handler: __TI_zero_init
	index: 1, handler: __TI_decompress_rle24
	index: 2, handler: __TI_decompress_none


GLOBAL SYMBOLS: SORTED ALPHABETICALLY BY Name 

address    name
--------   ----
8037d8d0   ADS1298DataFormat
8031a24c   ADS1298Init
8037d8ec   ADS1298TransferParam
8035e920   ADS1298_config_init
80308924   Add_MACAddress
8034b560   Bind6DADCheck
80360f00   Bind6FindByHost
8035e980   Bind6FindByIF
80360f40   Bind6FindByNet
8034b6a0   Bind6Free
80347980   Bind6GetGlobalAddress
80362a40   Bind6GetInterfaceHandle
80362a60   Bind6GetLifetime
80353080   Bind6GetLinkLocalAddress
8035e9e0   Bind6IF2IPHost
803455c0   Bind6Msg
80327060   Bind6New
80362a80   Bind6SetLifetime
8035ea40   BindFindByHost
8035eaa0   BindFindByIF
8035eb00   BindFindByNet
8034e240   BindFree
80362aa0   BindGetFirst
80362ac0   BindGetIF
8035eb60   BindGetIFByDBCast
80360f80   BindGetIP
80362ae0   BindGetNext
8035ebc0   BindIF2IPHost
80362b00   BindIFNet2IPHost
80362b20   BindIPHost2IF
80336260   BindNew
80372060   BlockCount
80372040   BlockMax
803049d0   Bus_error_handler
80363420   C$$EXIT
80360cb8   C$$IO$$
803833cc   CONTENT_LENGTH
803833c8   CONTENT_TYPE
8038339c   CONTENT_TYPE_APPLET
803833a0   CONTENT_TYPE_AU
803833a4   CONTENT_TYPE_CSS
803833a8   CONTENT_TYPE_DOC
803833ac   CONTENT_TYPE_GIF
803833b0   CONTENT_TYPE_HTML
803833b4   CONTENT_TYPE_JPG
803833b8   CONTENT_TYPE_MPEG
803833bc   CONTENT_TYPE_PDF
803833c0   CONTENT_TYPE_WAV
803833c4   CONTENT_TYPE_ZIP
803833d0   CRLF
80362b40   CSL_GPIO_open
8034b7e0   CSL_chipReadReg
80332080   CfgAddEntry
80359100   CfgEntryDeRef
803591a0   CfgEntryGetData
8035ec20   CfgEntryInfo
803439c0   CfgExecute
8034e360   CfgFree
80349300   CfgGetEntry
80353160   CfgGetEntryCnt
80359240   CfgGetImmediate
80349460   CfgGetNextEntry
80351180   CfgNew
80345760   CfgRemoveEntry
80362b60   CfgSetDefault
80351280   CfgSetExecuteOrder
8035ec80   CfgSetService
8037cae0   Code2Err
8030ade0   Convert_CoreLocal2GlobalAddr
8030c054   CorePllcGetHwSetup
8030bdf8   CorePllcHwSetup
80343b80   Cppi_channelClose
80359420   Cppi_channelEnable
8031e760   Cppi_configureRxFlow
80362b80   Cppi_init
80343d40   Cppi_initCfg
8032bd40   Cppi_initDescriptor
8033d1c0   Cppi_open
80328fe0   Cppi_rxChannelOpen
8035bea0   Cppi_setCpdmaLoopback
80325d60   Cppi_txChannelOpen
8030c594   DDR3Init
803833d4   DEFAULT_NAME
80353240   DHCPClose
80338fa0   DHCPOpen
8038341c   DNSServer
8034e480   DaemonFree
8033d400   DaemonNew
803495c0   DbgPrintf
803834a8   DebugCritError
0085d390   DebugLog
803834a4   DebugLogSize
80383418   DomainName
80302554   EDMA_CC_error_handler
80302764   EDMA_TC_error_handler
80301888   EDMA_TC_priority_cfg
80301824   EDMA_channel_TC_cfg
80301f04   EDMA_copy
80302890   EDMA_error_handler
80302118   EDMA_fill
803018e0   EDMA_init
80301e40   EDMA_wait
80319d44   EVM_init
80305470   EXC_NMI
803053b0   EXC_internal
80305488   EXC_swgen
80307438   EmacRxPktISR
803206c0   Exception_service_routine
80360fc0   ExecClose
80362ba0   ExecHRef
80362bc0   ExecLowResource
8034b920   ExecOpen
80361000   ExecTimer
803594c0   FdSignalEvent
8034e5a0   FdWaitEvent
80383414   GatewayIP
80359560   HOSTclose
80351380   HOSTlseek
80353320   HOSTopen
80356880   HOSTread
80345900   HOSTrename
80356940   HOSTunlink
80356a00   HOSTwrite
803833d8   HTTP_VER
80383408   HostName
8035bfa0   ICMPChecksum
80339220   ICMPGenPacket
803223c0   ICMPInput
8034ba60   ICMPSendRtAdv
8033f120   ICMPv6RecvNA
80333340   ICMPv6RecvNS
8031e0e0   ICMPv6RecvRA
8035c0a0   ICMPv6RecvRS
803323a0   ICMPv6RecvRedirect
8032f100   ICMPv6RxPacket
80333640   ICMPv6SendDstUnreachable
8033b7a0   ICMPv6SendNA
8033ba00   ICMPv6SendNS
80330600   ICMPv6SendParameterProblem
80333940   ICMPv6SendTimeExceeded
803024b4   IDMA_copy
80302484   IDMA_wait
8032f480   IGMPInput
8034bba0   IGMPJoin
80353400   IGMPLeave
8034e6c0   IGMPLeaveHostGroup
80347b00   IGMPMsg
8035eda0   IGMPTestGroup
80383570   INFINITE_LT
8035ee00   IPChecksum
80343f00   IPGetRoute
8034e7e0   IPMsg
80320cc0   IPReasm
80359600   IPReasmFree
803596a0   IPReasmTimeout
80362be0   IPRtChange
803160c0   IPRxPacket
803176e0   IPTxPacket
80371d18   IPV6_ALL_NODES_ADDRESS
80371d28   IPV6_ALL_ROUTER_ADDRESS
8038355c   IPV6_DELAY_FIRST_PROBE_TIME
80371d08   IPV6_HOST_MASK
80371cc8   IPV6_LINKLOCALMASK
80371cf8   IPV6_LOOPBACK_ADDRESS
80383550   IPV6_MAX_MULTICAST_SOLICIT
8038356c   IPV6_MAX_RTR_SOLICITATIONS
80383564   IPV6_MAX_RTR_SOLICITATION_DELAY
80383554   IPV6_MAX_UNICAST_SOLICIT
80371cd8   IPV6_MULTICASTMASK
80383560   IPV6_REACHABLE_TIME
80383558   IPV6_RETRANS_TIME
80383568   IPV6_RTR_SOLICITATION_INTERVAL
80371ce8   IPV6_UNSPECIFIED_ADDRESS
80359740   IPv6CompareAddress
8034bce0   IPv6DisplayIPAddress
80345c40   IPv6FragMsg
8035c1a0   IPv6GetRoute
80351580   IPv6GetSubnetMaskFromBits
80323480   IPv6IPAddressToString
8034eb40   IPv6Init
80361040   IPv6IsLinkLocal
80361080   IPv6IsMulticast
80356c40   IPv6Layer4ComputeChecksum
80337020   IPv6ParseExtnHeaders
80340ee0   IPv6ParseFragHdr
8033f560   IPv6RxPacket
8032b960   IPv6TxFragPacket
8032c100   IPv6TxPacket
80308810   Init_Cpsw
803084d4   Init_MAC
80308558   Init_MDIO
803088d8   Init_PASS
80323e58   Init_SGMII
80308560   Init_Switch
8034ec60   IsICMPv6ErrorPkt
80304aac   KeyStone_CIC_EXC_handler
8030436c   KeyStone_CIC_exception_events_mapping
80302da4   KeyStone_CorePac_AID_map
803011a8   KeyStone_DDR_PLL_init
80304eec   KeyStone_EXC_external
803047c4   KeyStone_Exception_cfg
80328d30   KeyStone_MPAX_seg_setup
803035b0   KeyStone_MPU_MPPA_modify
803036a8   KeyStone_MPU_interrupts_enable
8030332c   KeyStone_MPU_range_setup
803033ac   KeyStone_MPU_setup
80303068   KeyStone_MSMC_MP_interrupt_en
803031e8   KeyStone_MSMC_protection_exception_handler
80301118   KeyStone_PASS_PLL_init
80300f6c   KeyStone_PLL_init
80302e2c   KeyStone_PrivID_Remap
80302f88   KeyStone_SES_MPAX_setup
80303a60   KeyStone_SL2_EDC_enable
80304088   KeyStone_SL2_EDC_handler
80303b20   KeyStone_SL2_EDC_interrupt_en
80302ea8   KeyStone_SMS_MPAX_setup
803109a8   KeyStone_SPIDAT1_buffer_construct
803104d4   KeyStone_SPIDAT1_format
80310ab8   KeyStone_SPI_EDMA_TxRx
803105f4   KeyStone_SPI_TxRx
8030fec8   KeyStone_SPI_init
80310428   KeyStone_SPI_wait_flag
80328ed4   KeyStone_XMC_MPAX_setup
803017e0   KeyStone_disable_PSC_Power_Domain
8030178c   KeyStone_disable_PSC_module
80301728   KeyStone_enable_PSC_module
80300ad8   KeyStone_main_PLL_init
80303980   KeyStone_peripherals_MPU_excepiton_handler
80303884   KeyStone_peripherals_MPU_fault_status
803054a0   KeyStone_print_device_info
803108f8   KeyStone_set_SPIDAT1_format
80302ad0   L1D_memory_protection_cfg
80303ccc   L1P_EDC_setup
80303f64   L1P_ED_handler
80302a40   L1P_memory_protection_cfg
80302998   L1_MPPA_setup
80302b64   L1_cache_protection
80362c00   LED_TOGGLE
80383388   LL2_EDC_DMA_err_str
8038338c   LL2_EDC_L1D_err_str
80383390   LL2_EDC_L1P_err_str
80303d50   LL2_EDC_handler
80303c34   LL2_EDC_scrub
80303b74   LL2_EDC_setup
80383384   LL2_EDC_victim_err_str
80302b74   LL2_MPPA_setup
80302c10   LL2_Memory_Protection_cfg
8035c220   LLI6Free
80362c20   LLI6GetNetDevice
80362c40   LLI6IncRefCount
80362c60   LLI6IsDead
80362c80   LLI6IsRouter
803610c0   LLI6IsValid
803535c0   LLI6Msg
803410e0   LLI6New
80362ca0   LLI6SetIncomplete
8033bc60   LLI6TxIPPacket
803536a0   LLI6Update
8035ee60   LLIFree
80344280   LLIGenArpPacket
80356d00   LLIGetValidTime
80356dc0   LLIMsg
8034bf60   LLINew
80327500   LLIRxPacket
80330cc0   LLITxIpPacket
803597e0   LLIValidateRoute
8038340c   LocalIPAddr
80383410   LocalIPMask
80359880   MD5Final
80361100   MD5Init
8034ed80   MD5Update
8034eea0   MLDJoinGroup
80356f40   MLDLeaveGroup
80361140   MLDTestGroup
80305be8   Memory_Address_Bus_Test
80305534   Memory_Address_Test
803057b8   Memory_Data_Bus_Test
80305678   Memory_Fill_Test
8030604c   Memory_quick_test
80361180   NC_BootComplete
80362cc0   NC_IPUpdate
80345f80   NC_NetStart
80362ce0   NC_NetStop
8035c320   NC_SystemClose
8034efc0   NC_SystemOpen
803611c0   NDK_hookCreate
80362d00   NDK_hookInit
8034f0e0   NIMUAddEthernetHeader
8035eec0   NIMUAddHeader
8035ef20   NIMUCreatePacket
80381788   NIMUDeviceTable
8035ef80   NIMUFindByIndex
80357000   NIMUFindByName
80362d20   NIMUGetRsvdSizeInfo
8035c3a0   NIMUInit
8032db40   NIMUIoctl
8035efe0   NIMUPacketService
8035f040   NIMUPacketServiceCheck
8033bec0   NIMUReceivePacket
80347c80   NIMURegister
8035f0a0   NIMUSendPacket
80362d40   NIMUSetRsvdSizeInfo
80359920   NIMUShutdown
803599c0   NIMUUnregister
803570c0   NS_BootTask
8035f100   NS_PreBoot
80314518   NandGetDetails
80313c0c   NandReadSpareArea
80313f2c   NandWriteDataBytes
80314190   NandWriteSpareArea
80362d60   NatMsg
80320a70   Nested_Exception_service_routine
80319dec   NetworkInit
803372c0   NodeAdd
80353a20   NodeDeRef
8034c0a0   NodeFind
80362d80   NodeGetRt
80362da0   NodeSetRt
80346120   NodeTreeFree
80353be0   NodeTreeNew
8034c1e0   NodeWalk
80362dc0   NotifyLowResource
80381848   Ns_str
80359a60   NtAddNetwork
80357240   NtIfIdx2Ip
80361200   NtRemoveNetwork
80362de0   OEMCacheClean
80362e00   OEMSysCritOff
80362e20   OEMSysCritOn
80334a04   Osal_cppiBeginMemAccess
80334974   Osal_cppiCsEnter
80334990   Osal_cppiCsExit
80334a14   Osal_cppiEndMemAccess
803349d8   Osal_cppiFree
803349a0   Osal_cppiMalloc
8033494c   Osal_nimuFree
80334918   Osal_nimuMalloc
80334ae8   Osal_paBeginMemAccess
80334af8   Osal_paEndMemAccess
80334b0c   Osal_paMtCsEnter
80334b20   Osal_paMtCsExit
803348c8   Osal_platformFree
80334894   Osal_platformMalloc
803348f0   Osal_platformSpiCsEnter
8033490c   Osal_platformSpiCsExit
80334ac4   Osal_qmssBeginMemAccess
80334a28   Osal_qmssCsEnter
80334a44   Osal_qmssCsExit
80334ad4   Osal_qmssEndMemAccess
80334a98   Osal_qmssFree
80334a68   Osal_qmssMalloc
80334a50   Osal_qmssMtCsEnter
80334a54   Osal_qmssMtCsExit
8035c420   PBMQ_deq
80353cc0   PBMQ_enq
80372344   PBMQ_free
8034c320   PBM_alloc
80362e40   PBM_close
80353da0   PBM_copy
803499e0   PBM_free
80359b00   PBM_open
803833e0   PITCount
803833e8   PITHigh
803833e4   PITUsed
8031d300   Pa_addMac
80331380   Pa_create
803462c0   Pa_downloadImage
80335120   Pa_forwardResult
8035c520   Pa_getBufferReq
8033d640   Pa_resetControl
803720a0   PageCount
80372080   PageMax
803817d0   Peri_MPU_err_type_str
80359ba0   PipeCheck
8035c5a0   PipeClose
8033d880   PipeRecv
80349ca0   PipeSend
8030c334   PowerUpDomains
80315638   QMSS_QPOP
803156d4   QMSS_QPUSH
80315750   QMSS_QPUSHDESCSIZE
80361240   Qmss_ackInterrupt
80381938   Qmss_cdmaEoiVector
8034f200   Qmss_disableAccumulator
80361280   Qmss_getMemRegDescSize
8035c620   Qmss_getMemRegQueueHandle
80362e60   Qmss_getQueueNumber
80381708   Qmss_highEoiVector
803316c0   Qmss_init
8031a4a0   Qmss_insertMemoryRegion
803818b8   Qmss_lowEoiVector
803414e0   Qmss_programAccumulator
80359c40   Qmss_queueClose
8035c6a0   Qmss_queueOpen
80357300   Qmss_setEoiVector
80362e80   Qmss_start
80359ce0   Qmss_startCfg
8035f1c0   RTCAddHook
80351780   RTCMsg
8035f220   RTCRemoveHook
803416e0   RTCReport
80346460   Raw6Input
803418e0   Raw6Output
8034f320   RawEthRxPacket
80351880   RawEthSockCheck
8035c720   RawEthSockClose
8033f780   RawEthSockNew
80353e80   RawEthSockNotify
80353f60   RawEthSockPcbAttach
8035f280   RawEthSockPcbCleanup
8035c7a0   RawEthSockPcbDetach
8035f2e0   RawEthSockPcbFind
803612c0   RawEthSockPcbInit
80362ea0   RawEthSockPrAttach
80362ec0   RawEthSockPrDetach
80354040   RawEthSockSend
8033c120   RawEthSockSet
8034f440   RawEthTxPacket
8033dac0   RawInput
80349e00   RawOutput
803013d8   Reset_Timer
80354120   Route6Msg
80359d80   RouteMsg
8031fa80   Rt6Create
80335400   Rt6Find
803573c0   Rt6FindDefaultRouter
80337560   Rt6Free
80362ee0   Rt6GetIF
80362f00   Rt6GetLLI
80362f20   Rt6GetMTU
8035f340   Rt6GetNetworkAddr
80362f40   Rt6IncRefCount
80361340   Rt6IsDefaultRoute
80362f60   Rt6IsLocalRoute
80342ac0   Rt6Modify
8035c820   Rt6Update
8032dee0   RtCreate
80354200   RtDeRef
80337800   RtFind
80351980   RtRedirect
803542e0   RtRemove
8035c8a0   RtSetFailure
8035c920   RtSetTimeout
80357480   RtWalkBegin
8035f3a0   RtWalkEnd
8034a0c0   RtWalkNext
80357540   SB6Flush
80359ec0   SB6Free
8034c5a0   SB6New
80336520   SB6Read
80357600   SB6SetMax
8033c380   SB6Write
803576c0   SBFlush
80359f60   SBFree
8034f560   SBNew
8032e280   SBRead
803543c0   SBReadNC
803544a0   SBSetMax
8033c5e0   SBWrite
803833dc   SPACE
8033fa80   SPI_ISR
80319cd8   SPI_Init
8033f9f8   SPI_Interrupt_Handler
8033fab0   SPI_Interrupts_Init
80383510   SPI_event_num
8035a000   SemCreate
80362f80   SemDelete
80362fa0   SemPend
80362fc0   SemPost
80362fe0   SemReset
803016e4   Service_Watchdog
8030c3d0   SetDDR3PllConfig
8030c140   SetPaPllConfig
80308028   Setup_Rx
80307d50   Setup_Tx
8034c820   Sock6Accept
8035c9a0   Sock6Bind
8034a380   Sock6Check
8035a0a0   Sock6CleanPcb
8033c840   Sock6Close
80326220   Sock6Connect
8034a4e0   Sock6CreatePacket
8034f8c0   Sock6Disconnect
8035a140   Sock6GetName
80357780   Sock6IntAbort
8034c960   Sock6Listen
80329420   Sock6New
8032f800   Sock6Notify
80361380   Sock6PcbAttach
80333f40   Sock6PcbBind
8035ca20   Sock6PcbCleanup
8034a640   Sock6PcbConnect
8035f460   Sock6PcbDetach
803367e0   Sock6PcbResolve
80357840   Sock6PcbResolveChain
80357900   Sock6PcbRtChange
80363000   Sock6PrAttach
8035f4c0   Sock6PrCtlError
8035f520   Sock6PrDetach
803279a0   Sock6Recv
8032ad60   Sock6Send
803266e0   Sock6Set
80363020   Sock6SetOOBData
803613c0   Sock6SetOOBMark
8034f9e0   Sock6Shutdown
80354580   Sock6SpawnAbort
80354660   Sock6ValidateRoute
8034caa0   SockAccept
8035a1e0   SockBind
8034a7a0   SockCheck
8035a280   SockCleanPcb
80337d40   SockClose
8032fb80   SockConnect
803467a0   SockCreatePacket
80354740   SockDisconnect
8035caa0   SockGetName
803579c0   SockIntAbort
8034cbe0   SockListen
80323f40   SockNew
8032ff00   SockNotify
80361400   SockPcbAttach
8033caa0   SockPcbBind
8035cb20   SockPcbCleanup
8034a900   SockPcbConnect
8034cd20   SockPcbCtlError
8035cba0   SockPcbDetach
803399a0   SockPcbResolve
8035a320   SockPcbResolveChain
80357a80   SockPcbRtChange
80363040   SockPrAttach
8035f580   SockPrCtlError
8035f5e0   SockPrDetach
80327e40   SockRecv
80339c20   SockRecvNC
8032c880   SockSend
8031bc20   SockSet
80363060   SockSetOOBData
80361440   SockSetOOBMark
8034fc20   SockShutdown
80354820   SockSpawnAbort
80351a80   SockValidateRoute
803085e0   Switch_update_addr
80357b40   TCP6Close
8035a3c0   TCP6Drop
80339ea0   TCP6GenPacket
8030e380   TCP6Input
80312360   TCP6Output
8034fd40   TCP6PrAttach
8035f640   TCP6PrConnect
8035a460   TCP6PrCtlError
80354900   TCP6PrDetach
803549e0   TCP6PrDisconnect
80351c80   TCP6PrInherit
8035cc20   TCP6PrListen
80363080   TCP6PrRecv
8035a500   TCP6PrSend
8035a5a0   TCP6PrSendOOB
80337fe0   TCP6PrSetOption
8035f6a0   TCP6SetPersist
803630a0   TCP6TimeoutAdd
8032cc40   TCP6TimeoutCheck
8034abc0   TCP6TimeoutKeep
8035f700   TCP6TimeoutPersist
80361480   TCP6TimeoutRemove
80346ae0   TCP6TimeoutRexmt
80357c00   TCP6TimeoutSackRexmt
803614c0   TCP6TimeoutWait2
80354ac0   TCP6ValidateMetrics
80351d80   TCP6XmitTimer
803032e0   TN_MPU5_constant
803012a0   TSC_delay_ms
80301338   TSC_delay_us
8030128c   TSC_init
80380d58   TSK_idle
803630c0   TaskBlock
8035a640   TaskCreate
80361500   TaskDestroy
8033b020   TaskExit
80357cc0   TaskGetEnv
803630e0   TaskSelf
8035cca0   TaskSetEnv
80363100   TaskSetPri
80338d00   TaskSleep
80357d80   TcpChecksum
80357e40   TcpClose
8035a6e0   TcpDrop
80342e80   TcpGenPacket
8030c980   TcpInput
80311120   TcpOutput
8034fe60   TcpPrAttach
8035f760   TcpPrConnect
8035a780   TcpPrCtlError
80354ba0   TcpPrDetach
80354c80   TcpPrDisconnect
80351e80   TcpPrInherit
8035cd20   TcpPrListen
80363120   TcpPrRecv
8035a820   TcpPrSend
8035a8c0   TcpPrSendOOB
80338280   TcpPrSetOption
8035f7c0   TcpSetPersist
80363140   TcpTimeoutAdd
8032d000   TcpTimeoutCheck
8034ad20   TcpTimeoutKeep
8035f820   TcpTimeoutPersist
80361540   TcpTimeoutRemove
803447c0   TcpTimeoutRexmt
80357f00   TcpTimeoutSackRexmt
80361580   TcpTimeoutWait2
80354d60   TcpValidateMetrics
80351f80   TcpXmitTimer
8034e480   TelnetClose
8034ff80   TelnetOpen
80301428   Timer64_Init
80363160   TimerFree
8035cda0   TimerHSTick
8035a960   TimerNew
80333020   UartInit
803332ec   UartIsDataReady
803331f0   UartReadBaudRate
80333260   UartReadData
80333178   UartSetBaudRate
8033328c   UartWriteData
80334240   Udp6Input
80336aa0   Udp6Output
80354f20   UdpChecksum
803253a0   UdpInput
803359c0   UdpOutput
80355000   VLANDeinit
8035f940   VLANInit
803550e0   VLANReceivePacket
80383404   VerStr
80308614   Verify_Init
80371f10   _ICMPIn
803834b4   _ICMPInErrors
80371f60   _ICMPOut
803834b8   _ICMPOutErrors
80383490   _IGMPForceVersion1
80383290   _IGMPInDiscard
80383294   _IGMPInQuery
80383298   _IGMPInQueryGroup
8038329c   _IGMPInResponse
803832a0   _IGMPOutResponse
803834bc   _IPExecuting
8038352c   _IPReasmPtr
803552a0   _LLIExpListInsert
8035cf20   _LLIExpListRemove
80344980   _LLITimeoutCheck
8035aaa0   _LLITimeoutFlush
80355380   _RtExpListInsert
8035d020   _RtExpListRemove
803500a0   _RtNodeInsert
80352080   _RtNodeRemove
80363180   _TaskInit
803631a0   _TaskShutdown
80000000   __ASM__
80383800   __CIOBUF_
80000060   __ISA__
80000078   __PLAT__
800000a0   __TARG__
803850f0   __TI_CINIT_Base
80385178   __TI_CINIT_Limit
80385088   __TI_Handler_Table_Base
80385094   __TI_Handler_Table_Limit
UNDEFED    __TI_INITARRAY_Base
UNDEFED    __TI_INITARRAY_Limit
0085d388   __TI_STACK_END
00001000   __TI_STACK_SIZE
80383278   __TI_STATIC_BASE
00000001   __TI_args_main
803634c0   __TI_decompress_none
803634e0   __TI_decompress_rle24
803815dc   __TI_enable_exit_profile_output
ffffffff   __TI_pprof_out_hndl
ffffffff   __TI_prof_data_size
ffffffff   __TI_prof_data_start
803557e0   __TI_zero_init
800000c8   __TRDR__
ffffffff   __binit__
80321280   __c6xabi_divd
8033a120   __c6xabi_divf
80355460   __c6xabi_divi
803582c0   __c6xabi_divu
80346c80   __c6xabi_divul
8033dd00   __c6xabi_divull
8035d0a0   __c6xabi_fixfu
8035fa00   __c6xabi_frcmpyd_div
803615c0   __c6xabi_isinf
8035d120   __c6xabi_llshl
8035fa60   __c6xabi_llshru
803631c0   __c6xabi_negll
80358380   __c6xabi_remi
8035ab40   __c6xabi_remu
80361640   __c6xabi_strasgi_64plus
ffffffff   __c_args__
803631e0   __cxa_atexit
80358200   __cxa_finalize
80363200   __cxa_ia64_exit
80355460   __divi
803582c0   __divu
80358380   __remi
8035ab40   __remu
80361640   __strasgi_64plus
80363220   __xdc__init
803802f8   __xdc__init__addr
80361680   _args_main
00000000   _argsize
8034ce60   _auto_init_elf
8035abe0   _c_int00
8035ac80   _cleanup
803815d4   _cleanup_ptr
803501c0   _closefile
8037bbf0   _ctypes_
80358440   _doflush
803815d8   _dtors_ptr
803802fc   _ft_end
80380800   _ftable
80380da0   _ipcfg
80363240   _llSerialInit
80363260   _llSerialServiceCheck
80363280   _llSerialShutdown
803616c0   _llTimerInit
803632a0   _llTimerShutdown
803632c0   _llUserLedInit
803632e0   _llUserLedShutdown
80381864   _lock
8032e620   _mmCheck
80350400   _mmInit
80363300   _nop
803816bc   _oscfg
803282e0   _printfi
803633a0   _register_lock
803633c0   _register_unlock
0085c388   _stack
8035fac0   _subcull
80371880   _tmpnams
80381868   _unlock
80352180   _wrt_ok
80363420   abort
8037a088   acc48_le
80341ee0   accept
8031a1d0   ads1298_ISR
8031a1e4   ads1298_drdy_init
80363440   atexit
80355620   atoi
8034ae80   authInit
8035afa0   authStart
80348400   bind
ffffffff   binit
80381728   bus_err_stat_str
803723c0   c1
80378728   c2
80301234   calc_cycle_measure_overhead
80329860   chapInput
80355700   close
80323de0   configSerdes
80372280   coreKey
803811f0   cppiGblCfgParams
803813cc   cppiLObj
80383600   cppiObject
803422e0   cppi_internal_heap_add
8035d220   cppi_internal_heap_cache_begin
80363460   cppi_internal_heap_free
8035b040   cppi_internal_heap_malloc
8035fb20   cppi_list_add
8035fb80   cppi_list_cache_invalidate
8035b0e0   cppi_list_cat
80363480   cppi_list_get_head
803634a0   cppi_list_get_next
8035d2a0   cppi_list_remove
80358500   cppi_list_remove_node
8038337c   cycle_measure_overhead
8035b180   dhcpBuildDecline
8035fbe0   dhcpBuildDiscover
80346e20   dhcpBuildOptions
80348580   dhcpBuildRequest
8034d220   dhcpDecodeType
803585c0   dhcpOptionsClear
80330280   dhcpPacketProcess
8035fc40   dhcpPacketReceive
8035fca0   dhcpPacketSend
8035d320   dhcpSocketClose
80343240   dhcpSocketOpen
8033e600   dhcpState
80340000   dhcpVerifyMessage
80358e00   dtask_udp_hello
8035d3a0   efs_fclose
8032b160   efs_filecheck
8035b2c0   efs_filesend
80358680   efs_fopen
80363500   efs_getfilesize
80361800   efs_loadfunction
80307140   emac_display_linkstatus
80382cb0   emac_port_mode
803832ac   ethSemHandle
8035d9a0   evmI2CInit
803720bc   exception_record
80358740   exit
80344ec0   fdClose
8035b360   fdCloseSession
80350640   fdOpenSession
8031c3e0   fdPoll
80329ca0   fdSelect
8035fd00   fdSelectAbort
8035fd60   fdint_clearevent
80361840   fdint_freefdt
8035fdc0   fdint_getfdt
803559a0   fdint_lockfd
8035fe20   fdint_setevent
80363520   fdint_signaltimeout
80352280   fdint_unlockfd
8035d4a0   fdint_waitevent
8035fe80   fdsetTestEntry
80355a80   fflush
80326c38   fpgaControlUserLEDs
80326e0c   fpgaDisableEepromWriteProtect
80326cf8   fpgaDisableNandWriteProtect
80326d84   fpgaDisableNorWriteProtect
80326e50   fpgaEnableEepromWriteProtect
80326d40   fpgaEnableNandWriteProtect
80326dc8   fpgaEnableNorWriteProtect
80326ee0   fpgaGetAMCDetect
80326e94   fpgaGetUserSwitch
80326fd0   fpgaReadConfigurationRegister
80326f24   fpgaWriteConfigurationRegister
80340220   fputc
8032e9c0   fputs
80361880   free
80350760   fseek
0085dd00   gAccChannelNum
80381748   gCIC_EXC_EN_MASK
80383398   gCIC_EXC_out_num
803722f0   gCppiCfg
80383378   gDSP_Core_Speed_Hz
80382c3c   gDeviceEeprom0
80382c74   gDeviceEeprom1
80382bcc   gDeviceNand
803819a0   gDeviceNandBBlist
80382c04   gDeviceNor
803834cc   gFragQList
0085dd20   gGlobalFreeQHnd
0085dc00   gHiPriAccumList
00856f00   gHostDesc
803721f8   gI2cBlock
80383534   gMLDNodeList
0085b000   gMemL2Ram
0085b3e8   gMemL3Ram
0085af00   gPAInst
0085ddb4   gPAInstHnd
0085da34   gPaCfgCmdRespQHnd
0085da40   gPaL2Handles
0085da68   gPaL3Handles
0085dab8   gPaL4Handles
0085da00   gPaTxQHnd
0085ddb0   gPassCpdmaHnd
0085dd50   gPassCpdmaRxChanHnd
0085dd28   gPassCpdmaTxChanHnd
80371fac   gPlatformInfo
0085ddb8   gQPopErrorCounter
0085ddbc   gQPushErrorCounter
0085dd0c   gRxCounter
0085dd14   gRxDropCounter
0085da38   gRxFlowHnd
0085da2c   gRxFreeQHnd
0085da30   gRxQHnd
803832a8   gTxCmdFreeQHnd
803832a4   gTxCmdReturnQHnd
0085dd08   gTxCounter
0085dd10   gTxDropCounter
0085da28   gTxFreeQHnd
0085dd04   gTxPort
0085da24   gTxReturnQHnd
80326ba0   getBoardVersion
80326bec   getFpgaDevID
80346fc0   getpeername
803832ec   gpBootCfgRegs
803832e8   gpCGEM_regs
80383300   gpCIC0_regs
80383304   gpCIC1_regs
80383308   gpCIC_regs
80383374   gpDDR_regs
8038330c   gpEDMA_CC0_regs
80383310   gpEDMA_CC1_regs
80383314   gpEDMA_CC2_regs
803818e8   gpEDMA_CC_regs
80383318   gpEDMA_TC_0_0_regs
8038331c   gpEDMA_TC_0_1_regs
80383320   gpEDMA_TC_1_0_regs
80383324   gpEDMA_TC_1_1_regs
80383328   gpEDMA_TC_1_2_regs
8038332c   gpEDMA_TC_1_3_regs
80383330   gpEDMA_TC_2_0_regs
80383334   gpEDMA_TC_2_1_regs
80383338   gpEDMA_TC_2_2_regs
8038333c   gpEDMA_TC_2_3_regs
80381648   gpEDMA_TC_regs
803832fc   gpGPIO_regs
80383364   gpMPU0_regs
80383368   gpMPU1_regs
8038336c   gpMPU2_regs
80383370   gpMPU3_regs
80381768   gpMPU_regs
803832f8   gpMSMC_regs
803832f0   gpPLLC_regs
803832f4   gpPSC_regs
80383340   gpTimer0Regs
80383344   gpTimer1Regs
80383348   gpTimer2Regs
8038334c   gpTimer3Regs
80383350   gpTimer4Regs
80383354   gpTimer5Regs
80383358   gpTimer6Regs
8038335c   gpTimer7Regs
80383360   gpTimer8Regs
80381670   gpTimerRegs
803832e4   gpXMC_regs
8031f400   gpioClearFallingEdgeInterrupt
8031f2f4   gpioClearOutput
8031f3c0   gpioClearRisingEdgeInterrupt
8031f388   gpioDisableGlobalInterrupt
8031f370   gpioEnableGlobalInterrupt
8031f248   gpioInit
8031f314   gpioReadInput
8031f294   gpioSetDirection
8031f3e0   gpioSetFallingEdgeInterrupt
8031f2d4   gpioSetOutput
8031f3a0   gpioSetRisingEdgeInterrupt
80381520   gstruMpuAddrRange
80383394   guwIntcCICExcEvtIdx
80383574   heap0
8034d4a0   httpAuthenticationReq
803193e0   httpClientProcess
8034e480   httpClose
80383520   httpErrorResponseHook
80350880   httpOpen
8033cd00   httpParseRecv
8035fee0   httpSendClientStr
8035d520   httpSendEntityLength
8035d5a0   httpSendErrorResponse
80358800   httpSendFullResponse
803509a0   httpSendStatusLine
80315060   i2cEepromMacRead
80314dc8   i2cEepromMacWrite
8031494c   i2cEepromRead
80314b50   i2cEepromWrite
80314684   i2cEepromWriteBlock
80314c70   i2cEepromWriteByteAddr
8037232c   icmp6stats
803618c0   inet_addr
80334540   inet_aton
80381698   internal_exception_str
8035ff40   ipcpInit
8031ac80   ipcpInput
8035ffa0   ipcpStart
80372128   ips
80371d38   ipv6mcb
80360000   lcpClose
8035b4a0   lcpInit
803180a0   lcpInput
80350ac0   lcpOpen
80350be0   lcpReject
80361900   list_add
80360060   list_cat
80363540   list_get_head
80363560   list_get_next
80361940   list_remove
803600c0   list_remove_node
80352480   listen
80348700   llEnter
80355c40   llExit
80363580   llSerialService
803635a0   llTimerGetStartTime
8035d620   llTimerGetTime
8035b5e0   llTimerTick
80328ba0   lock_mem_prot_regs
8035b680   lseek
80355d20   ltoa
80375bf0   m
80319dd8   main
8035d6a0   malloc
80372368   mem_prot_key
80360120   memccpy
8035b720   memcpy
803030d0   memory_protection_exception_handler
80355e00   memset
80331a00   mmAlloc
80355ee0   mmBulkAlloc
8035b7c0   mmBulkFree
8034d5e0   mmCopy
80352580   mmFree
803588c0   mmZeroInit
803142b8   nandFlashBlockErase
80314620   nandInit
80372270   nimuGlobalConfigParams
80308e24   nimu_getrxdrops
80308e34   nimu_gettxdrops
80372190   nimu_mcb
80324d74   nor_erase
80324a00   nor_get_details
80324a8c   nor_init
80324b04   nor_read
80324b94   nor_write
8038141c   paLObj
8037d588   paMemAligns
8032ed60   papInput
8037c860   pap_pdsp_const_reg_map
8030a6f0   platform_blocknpage_to_offset
80309c10   platform_delay
80309c70   platform_delaycycles
8030a178   platform_device_close
8030ad14   platform_device_erase_block
8030a2b0   platform_device_mark_block_bad
80309ff4   platform_device_open
8030a470   platform_device_read
8030a210   platform_device_read_spare_data
8030a7e4   platform_device_write
8030a3d0   platform_device_write_spare_data
80383504   platform_errno
80309cb0   platform_external_memory_test
80309934   platform_get_coreid
80309948   platform_get_emac_info
803093ec   platform_get_info
803099d8   platform_get_macaddr
80309a6c   platform_get_phy_addr
80309ae4   platform_get_switch_state
803096f4   platform_init
80383508   platform_init_return_code
80309d30   platform_internal_memory_test
80309bc8   platform_led
8030a5c8   platform_offset_to_blocknpage
80309a80   platform_phy_link_status
80309ba8   platform_uart_init
80309af0   platform_uart_read
80309b74   platform_uart_set_baudrate
80309b58   platform_uart_write
80309ee0   platform_write
80309ea4   platform_write_configure
80322f00   pppEvent
80355fc0   pppFree
80336d60   pppInput
80328740   pppNew
803602a0   pppoeInput
80331d40   pppoeSI
803560a0   printf
8030bc94   prog_pll1_values
80381790   pstrMsgName
803834f4   pt6TimeFirst
803834f0   ptTimeFirst
80363620   putc
80363640   putchar
803619c0   puts
8037f900   qmssGObj
80380b60   qmssGblCfgParams
803719c0   qmssLObj
8038354c   qmssLObjIsValid
8037d900   queueFree
80372398   raw6_stats
80371f0c   raweth_pcb
803723a8   raweths
80372388   raws
80313cf8   readNandPage
8035d7a0   readmsg
8034d720   recv
80360300   recvncfree
80345080   recvncfrom
8035e520   remove
80315a04   res_mgr_cppi_get_passhandle
80315e58   res_mgr_get_painstance
80315a14   res_mgr_init_cppi
80315e6c   res_mgr_init_pass
803157c8   res_mgr_init_qmss
80315628   res_mgr_qmss_get_freeq
80315c78   res_mgr_stop_cppi
803159e4   res_mgr_stop_qmss
80383578   semDRDY
8034d860   send
80343420   sendto
803092d4   serial_num_isvalid
8034b2a0   setsockopt
803426e0   setvbuf
80350e20   socket
8038350c   spiRegs
80322990   spi_claim
80322c84   spi_cmd
80322ce8   spi_cmd_read
80322d48   spi_cmd_write
803818c8   spi_int_str
80322da8   spi_read_word
80322b38   spi_release
80322e60   spi_write_word
80322b50   spi_xfer
80360360   sprintf
80372378   stkEvent
80360420   strcpy
8035ba40   stricmp
80361a40   strlen
8035d8a0   strncpy
8035bae0   strstr
803834f8   tcp6_iss
80371e54   tcp6_stats
803834ec   tcp_iss
80371d90   tcps
8034b400   telnetClientProcess
80372310   ti_ndk_config_Global_Id2Size
80383590   ti_ndk_config_Global_largest
80383594   ti_ndk_config_Global_numFrameBuf
00800000   ti_ndk_config_Global_pBufMem
0084e000   ti_ndk_config_Global_pHdrMem
80364840   ti_ndk_config_Global_pit
80364a00   ti_ndk_config_Global_pitBuffer
80383588   ti_ndk_config_Global_rawPageCount
80383584   ti_ndk_config_Global_rawPageSize
80383598   ti_ndk_config_Global_sizeFrameBuf
8038358c   ti_ndk_config_Global_smallest
80360480   ti_ndk_config_Global_stackThread
8037bbec   ti_sysbios_BIOS_Module__diagsEnabled__C
8037bcf4   ti_sysbios_BIOS_Module__diagsIncluded__C
8037cec4   ti_sysbios_BIOS_Module__diagsMask__C
8037bcf2   ti_sysbios_BIOS_Module__id__C
8037fd00   ti_sysbios_BIOS_Module__state__V
80363660   ti_sysbios_BIOS_RtsGateProxy_enter__E
80363680   ti_sysbios_BIOS_RtsGateProxy_leave__E
80358a40   ti_sysbios_BIOS_errorRaiseHook__I
803604e0   ti_sysbios_BIOS_exitFunc__I
8037d13c   ti_sysbios_BIOS_installedErrorHook__C
80360540   ti_sysbios_BIOS_registerRTSLock__I
803636a0   ti_sysbios_BIOS_setThreadType__E
80361a80   ti_sysbios_BIOS_startFunc__I
80361ac0   ti_sysbios_BIOS_start__E
803636c0   ti_sysbios_family_c62_TaskSupport_Module__startupDone__S
80361780   ti_sysbios_family_c62_TaskSupport_buildTaskStack
803636e0   ti_sysbios_family_c62_TaskSupport_checkStack__E
80363700   ti_sysbios_family_c62_TaskSupport_getStackAlignment__E
803633e0   ti_sysbios_family_c62_TaskSupport_glue
8037d2dc   ti_sysbios_family_c62_TaskSupport_stackAlignment__C
8035da20   ti_sysbios_family_c62_TaskSupport_start__E
8035d1a0   ti_sysbios_family_c62_TaskSupport_swap__E
8037d598   ti_sysbios_family_c64p_EventCombiner_EVTMASK__C
8037d31c   ti_sysbios_family_c64p_EventCombiner_E_unpluggedEvent__C
8037c4ee   ti_sysbios_family_c64p_EventCombiner_Module__id__C
8037fd1c   ti_sysbios_family_c64p_EventCombiner_Module__state__V
80363720   ti_sysbios_family_c64p_EventCombiner_Module_startup__E
803605a0   ti_sysbios_family_c64p_EventCombiner_Module_startup__F
80363740   ti_sysbios_family_c64p_EventCombiner_disableEvent__E
80361b00   ti_sysbios_family_c64p_EventCombiner_disableEvent__F
80361b40   ti_sysbios_family_c64p_EventCombiner_dispatchPlug__E
80360600   ti_sysbios_family_c64p_EventCombiner_dispatchPlug__F
80363760   ti_sysbios_family_c64p_EventCombiner_dispatch__E
80352780   ti_sysbios_family_c64p_EventCombiner_dispatch__F
80363780   ti_sysbios_family_c64p_EventCombiner_enableEvent__E
80361b80   ti_sysbios_family_c64p_EventCombiner_enableEvent__F
803637a0   ti_sysbios_family_c64p_EventCombiner_unused__E
80360660   ti_sysbios_family_c64p_EventCombiner_unused__F
8037d33c   ti_sysbios_family_c64p_Exception_E_exceptionMin__C
8037c6be   ti_sysbios_family_c64p_Exception_Module__id__C
8038011c   ti_sysbios_family_c64p_Exception_Module__state__V
803637c0   ti_sysbios_family_c64p_Exception_Module_startup__E
8035daa0   ti_sysbios_family_c64p_Exception_Module_startup__F
80348a00   ti_sysbios_family_c64p_Exception_dispatch__E
8037d35c   ti_sysbios_family_c64p_Exception_exceptionHook__C
8037d37c   ti_sysbios_family_c64p_Exception_externalHook__C
8031cb80   ti_sysbios_family_c64p_Exception_handler__I
8033e840   ti_sysbios_family_c64p_Exception_internalHandler__I
8037d39c   ti_sysbios_family_c64p_Exception_internalHook__C
8037d3bc   ti_sysbios_family_c64p_Exception_nmiHook__C
80383000   ti_sysbios_family_c64p_Hwi0
80383020   ti_sysbios_family_c64p_Hwi1
80383140   ti_sysbios_family_c64p_Hwi10
80383160   ti_sysbios_family_c64p_Hwi11
80383180   ti_sysbios_family_c64p_Hwi12
803831a0   ti_sysbios_family_c64p_Hwi13
803831c0   ti_sysbios_family_c64p_Hwi14
803831e0   ti_sysbios_family_c64p_Hwi15
80383040   ti_sysbios_family_c64p_Hwi2
80383060   ti_sysbios_family_c64p_Hwi3
80383080   ti_sysbios_family_c64p_Hwi4
803830a0   ti_sysbios_family_c64p_Hwi5
803830c0   ti_sysbios_family_c64p_Hwi6
803830e0   ti_sysbios_family_c64p_Hwi7
80383100   ti_sysbios_family_c64p_Hwi8
80383120   ti_sysbios_family_c64p_Hwi9
8037d3dc   ti_sysbios_family_c64p_Hwi_E_alreadyDefined__C
8037d3fc   ti_sysbios_family_c64p_Hwi_E_handleNotFound__C
80356180   ti_sysbios_family_c64p_Hwi_Instance_finalize__F
80356260   ti_sysbios_family_c64p_Hwi_Instance_init__F
8037d41c   ti_sysbios_family_c64p_Hwi_LD_end__C
8037d43c   ti_sysbios_family_c64p_Hwi_LM_begin__C
8037d584   ti_sysbios_family_c64p_Hwi_Module__diagsEnabled__C
8037d5dc   ti_sysbios_family_c64p_Hwi_Module__diagsIncluded__C
8037d5ec   ti_sysbios_family_c64p_Hwi_Module__diagsMask__C
8037c9ca   ti_sysbios_family_c64p_Hwi_Module__id__C
8037ccd2   ti_sysbios_family_c64p_Hwi_Module__loggerDefined__C
8037d658   ti_sysbios_family_c64p_Hwi_Module__loggerFxn1__C
8037d65c   ti_sysbios_family_c64p_Hwi_Module__loggerFxn8__C
8037d660   ti_sysbios_family_c64p_Hwi_Module__loggerObj__C
80380148   ti_sysbios_family_c64p_Hwi_Module__root__V
80361bc0   ti_sysbios_family_c64p_Hwi_Module__startupDone__F
803637e0   ti_sysbios_family_c64p_Hwi_Module__startupDone__S
80380150   ti_sysbios_family_c64p_Hwi_Module__state__V
80363800   ti_sysbios_family_c64p_Hwi_Module_startup__E
8034d9a0   ti_sysbios_family_c64p_Hwi_Module_startup__F
8037d11c   ti_sysbios_family_c64p_Hwi_Object__DESC__C
8037ce94   ti_sysbios_family_c64p_Hwi_Object__PARAMS__C
80356340   ti_sysbios_family_c64p_Hwi_Object__create__S
80361c00   ti_sysbios_family_c64p_Hwi_Object__delete__S
80381268   ti_sysbios_family_c64p_Hwi_Object__table__V
80363820   ti_sysbios_family_c64p_Hwi_clearInterrupt__E
80361c40   ti_sysbios_family_c64p_Hwi_disableInterrupt__E
80341ce0   ti_sysbios_family_c64p_Hwi_dispatchAlways
80334b40   ti_sysbios_family_c64p_Hwi_dispatchC__I
80361c80   ti_sysbios_family_c64p_Hwi_enableInterrupt__E
8035db20   ti_sysbios_family_c64p_Hwi_eventMap__E
8035af00   ti_sysbios_family_c64p_Hwi_plug__E
80340660   ti_sysbios_family_c64p_Hwi_reconfig__E
803606c0   ti_sysbios_family_c64p_Hwi_restoreInterrupt__E
80363840   ti_sysbios_family_c64p_Hwi_startup__E
80363860   ti_sysbios_family_c64p_Hwi_switchFromBootStack__E
80363880   ti_sysbios_family_c64p_Hwi_unPluggedInterrupt__I
803638a0   ti_sysbios_family_c64p_TimestampProvider_Module_startup__E
803638c0   ti_sysbios_family_c64p_TimestampProvider_Module_startup__F
803638e0   ti_sysbios_family_c64p_TimestampProvider_get64__E
80363900   ti_sysbios_family_c64p_tci6488_TimerSupport_enable__E
80363920   ti_sysbios_family_c66_Cache_Module_startup__E
8034dae0   ti_sysbios_family_c66_Cache_Module_startup__F
8037d664   ti_sysbios_family_c66_Cache_atomicBlockSize__C
8037d5b8   ti_sysbios_family_c66_Cache_initSize__C
8035dba0   ti_sysbios_family_c66_Cache_invL1pAll__E
8037aae8   ti_sysbios_family_c66_Cache_marvalues__C
80363940   ti_sysbios_family_c66_Cache_wbInv__E
8037d668   ti_sysbios_family_c66_tci66xx_CpIntc_E_unpluggedSysInt__C
803818d8   ti_sysbios_family_c66_tci66xx_CpIntc_Module_State_0_controller__A
80380300   ti_sysbios_family_c66_tci66xx_CpIntc_Module_State_0_dispatchTab__A
80381380   ti_sysbios_family_c66_tci66xx_CpIntc_Module_State_0_hostIntToSysInt__A
80381888   ti_sysbios_family_c66_tci66xx_CpIntc_Module_State_0_initSIER__A
8037ce92   ti_sysbios_family_c66_tci66xx_CpIntc_Module__id__C
803801b8   ti_sysbios_family_c66_tci66xx_CpIntc_Module__state__V
80363960   ti_sysbios_family_c66_tci66xx_CpIntc_Module_startup__E
803387c0   ti_sysbios_family_c66_tci66xx_CpIntc_Module_startup__F
80363980   ti_sysbios_family_c66_tci66xx_CpIntc_clearSysInt__E
803639a0   ti_sysbios_family_c66_tci66xx_CpIntc_clearSysInt__F
803639c0   ti_sysbios_family_c66_tci66xx_CpIntc_disableAllHostInts__E
80361cc0   ti_sysbios_family_c66_tci66xx_CpIntc_disableAllHostInts__F
803639e0   ti_sysbios_family_c66_tci66xx_CpIntc_disableHostInt__E
80363a00   ti_sysbios_family_c66_tci66xx_CpIntc_disableHostInt__F
80361d00   ti_sysbios_family_c66_tci66xx_CpIntc_dispatchPlug__E
80361d40   ti_sysbios_family_c66_tci66xx_CpIntc_dispatchPlug__F
80363a20   ti_sysbios_family_c66_tci66xx_CpIntc_dispatch__E
80347300   ti_sysbios_family_c66_tci66xx_CpIntc_dispatch__F
80363a40   ti_sysbios_family_c66_tci66xx_CpIntc_enableAllHostInts__E
80361d80   ti_sysbios_family_c66_tci66xx_CpIntc_enableAllHostInts__F
80363a60   ti_sysbios_family_c66_tci66xx_CpIntc_enableHostInt__E
80363a80   ti_sysbios_family_c66_tci66xx_CpIntc_enableHostInt__F
80363aa0   ti_sysbios_family_c66_tci66xx_CpIntc_enableSysInt__E
80363ac0   ti_sysbios_family_c66_tci66xx_CpIntc_enableSysInt__F
8037d320   ti_sysbios_family_c66_tci66xx_CpIntc_eventId__A
8037d66c   ti_sysbios_family_c66_tci66xx_CpIntc_eventId__C
80363ae0   ti_sysbios_family_c66_tci66xx_CpIntc_getEventId__E
8035dc20   ti_sysbios_family_c66_tci66xx_CpIntc_getEventId__F
8037d340   ti_sysbios_family_c66_tci66xx_CpIntc_hostIntToEventId_0__A
8037d360   ti_sysbios_family_c66_tci66xx_CpIntc_hostIntToEventId_1__A
8037d380   ti_sysbios_family_c66_tci66xx_CpIntc_hostIntToEventId_2__A
8037d3a0   ti_sysbios_family_c66_tci66xx_CpIntc_hostIntToEventId_3__A
8037d3c0   ti_sysbios_family_c66_tci66xx_CpIntc_hostIntToEventId_4__A
8037d3e0   ti_sysbios_family_c66_tci66xx_CpIntc_hostIntToEventId_5__A
8037d400   ti_sysbios_family_c66_tci66xx_CpIntc_hostIntToEventId_6__A
8037d420   ti_sysbios_family_c66_tci66xx_CpIntc_hostIntToEventId_7__A
8037d140   ti_sysbios_family_c66_tci66xx_CpIntc_hostIntToEventId__A
8037d670   ti_sysbios_family_c66_tci66xx_CpIntc_hostIntToEventId__C
80363b00   ti_sysbios_family_c66_tci66xx_CpIntc_mapSysIntToHostInt__E
8035dca0   ti_sysbios_family_c66_tci66xx_CpIntc_mapSysIntToHostInt__F
8037d674   ti_sysbios_family_c66_tci66xx_CpIntc_numEvents__C
8037d678   ti_sysbios_family_c66_tci66xx_CpIntc_numStatusRegs__C
8037d67c   ti_sysbios_family_c66_tci66xx_CpIntc_numSysInts__C
8037c4f0   ti_sysbios_family_c66_tci66xx_CpIntc_sysIntToHostInt__A
8037d680   ti_sysbios_family_c66_tci66xx_CpIntc_sysIntToHostInt__C
80363b20   ti_sysbios_family_c66_tci66xx_CpIntc_unused__E
80360720   ti_sysbios_family_c66_tci66xx_CpIntc_unused__F
803617c0   ti_sysbios_family_xxx_Hwi_switchToIsrStack
80363400   ti_sysbios_family_xxx_Hwi_switchToTaskStack
80361dc0   ti_sysbios_gates_GateHwi_Handle__label__S
80363b40   ti_sysbios_gates_GateHwi_Instance_init__F
8037d048   ti_sysbios_gates_GateHwi_Module__FXNS__C
803801c8   ti_sysbios_gates_GateHwi_Module__root__V
8037d160   ti_sysbios_gates_GateHwi_Object__DESC__C
8037d4b8   ti_sysbios_gates_GateHwi_Object__PARAMS__C
8035dd20   ti_sysbios_gates_GateHwi_Object__create__S
80361e00   ti_sysbios_gates_GateHwi_Object__delete__S
80381928   ti_sysbios_gates_GateHwi_Object__table__V
80363b60   ti_sysbios_gates_GateHwi_enter__E
80363b80   ti_sysbios_gates_GateHwi_leave__E
80363ba0   ti_sysbios_gates_GateHwi_query__E
80363bc0   ti_sysbios_gates_GateHwi_query__F
8037d684   ti_sysbios_gates_GateMutex_A_badContext__C
80361e40   ti_sysbios_gates_GateMutex_Handle__label__S
8037d688   ti_sysbios_gates_GateMutex_Instance_State_sem__O
80361e80   ti_sysbios_gates_GateMutex_Instance_finalize__F
80360780   ti_sysbios_gates_GateMutex_Instance_init__F
8037d06c   ti_sysbios_gates_GateMutex_Module__FXNS__C
8037d68c   ti_sysbios_gates_GateMutex_Module__diagsEnabled__C
8037d690   ti_sysbios_gates_GateMutex_Module__diagsIncluded__C
8037d694   ti_sysbios_gates_GateMutex_Module__diagsMask__C
8037d33a   ti_sysbios_gates_GateMutex_Module__id__C
803801d0   ti_sysbios_gates_GateMutex_Module__root__V
8037d180   ti_sysbios_gates_GateMutex_Object__DESC__C
8037d4d0   ti_sysbios_gates_GateMutex_Object__PARAMS__C
8035dda0   ti_sysbios_gates_GateMutex_Object__create__S
80361ec0   ti_sysbios_gates_GateMutex_Object__delete__S
80381560   ti_sysbios_gates_GateMutex_Object__table__V
803474a0   ti_sysbios_gates_GateMutex_enter__E
80361f00   ti_sysbios_gates_GateMutex_leave__E
80363be0   ti_sysbios_gates_GateMutex_query__E
80363c00   ti_sysbios_gates_GateMutex_query__F
80361f40   ti_sysbios_hal_Cache_CacheProxy_wbInv__E
80361f40   ti_sysbios_hal_Cache_wbInv__E
8037d698   ti_sysbios_hal_Hwi_E_stackOverflow__C
80363c20   ti_sysbios_hal_Hwi_HwiProxy_Module__startupDone__S
80361f80   ti_sysbios_hal_Hwi_HwiProxy_Object__create__S
80363c40   ti_sysbios_hal_Hwi_HwiProxy_Object__delete__S
80363c60   ti_sysbios_hal_Hwi_HwiProxy_clearInterrupt__E
80363c80   ti_sysbios_hal_Hwi_HwiProxy_disableInterrupt__E
80363ca0   ti_sysbios_hal_Hwi_HwiProxy_enableInterrupt__E
80363cc0   ti_sysbios_hal_Hwi_HwiProxy_startup__E
80363ce0   ti_sysbios_hal_Hwi_HwiProxy_switchFromBootStack__E
80361fc0   ti_sysbios_hal_Hwi_Instance_finalize__F
803607e0   ti_sysbios_hal_Hwi_Instance_init__F
8037d35a   ti_sysbios_hal_Hwi_Module__id__C
803801d8   ti_sysbios_hal_Hwi_Module__root__V
80363d00   ti_sysbios_hal_Hwi_Module_startup__E
80363d20   ti_sysbios_hal_Hwi_Module_startup__F
8037d1a0   ti_sysbios_hal_Hwi_Object__DESC__C
8037cf54   ti_sysbios_hal_Hwi_Object__PARAMS__C
80356420   ti_sysbios_hal_Hwi_Object__create__S
803818f8   ti_sysbios_hal_Hwi_Object__table__V
80362000   ti_sysbios_hal_Hwi_Params__init__S
8035de20   ti_sysbios_hal_Hwi_checkStack
80363c60   ti_sysbios_hal_Hwi_clearInterrupt__E
80363c80   ti_sysbios_hal_Hwi_disableInterrupt__E
80363ca0   ti_sysbios_hal_Hwi_enableInterrupt__E
80360840   ti_sysbios_hal_Hwi_initStack
80363cc0   ti_sysbios_hal_Hwi_startup__E
80363ce0   ti_sysbios_hal_Hwi_switchFromBootStack__E
803801e0   ti_sysbios_hal_Timer_Module__root__V
80362040   ti_sysbios_hal_Timer_Module__startupDone__F
80363d40   ti_sysbios_hal_Timer_Module__startupDone__S
80363d60   ti_sysbios_hal_Timer_Module_startup__E
80363d80   ti_sysbios_hal_Timer_Module_startup__F
80381920   ti_sysbios_hal_Timer_Object__table__V
80363da0   ti_sysbios_hal_Timer_TimerProxy_Module__startupDone__S
80363dc0   ti_sysbios_hal_Timer_TimerProxy_getExpiredCounts__E
80363de0   ti_sysbios_hal_Timer_TimerProxy_getPeriod__E
80363e00   ti_sysbios_hal_Timer_TimerProxy_setNextTick__E
80363e20   ti_sysbios_hal_Timer_TimerProxy_startup__E
80363e20   ti_sysbios_hal_Timer_startup__E
8037d69c   ti_sysbios_heaps_HeapBuf_Instance_State_freeList__O
803801e8   ti_sysbios_heaps_HeapBuf_Module__root__V
803801f0   ti_sysbios_heaps_HeapBuf_Module__state__V
80363e40   ti_sysbios_heaps_HeapBuf_Module_startup__E
80348b80   ti_sysbios_heaps_HeapBuf_Module_startup__F
8037d6a0   ti_sysbios_heaps_HeapBuf_Object__count__C
803608a0   ti_sysbios_heaps_HeapBuf_Object__get__S
8037d6a4   ti_sysbios_heaps_HeapBuf_Object__table__C
8037d6a8   ti_sysbios_heaps_HeapBuf_numConstructedHeaps__C
8037d6ac   ti_sysbios_heaps_HeapMem_A_align__C
8037d6b0   ti_sysbios_heaps_HeapMem_A_heapSize__C
8037d6b4   ti_sysbios_heaps_HeapMem_A_invalidFree__C
8037d6b8   ti_sysbios_heaps_HeapMem_A_zeroBlock__C
8037d6bc   ti_sysbios_heaps_HeapMem_E_memory__C
80362080   ti_sysbios_heaps_HeapMem_Handle__label__S
80000000   ti_sysbios_heaps_HeapMem_Instance_State_0_buf__A
80348d00   ti_sysbios_heaps_HeapMem_Instance_init__F
80363e60   ti_sysbios_heaps_HeapMem_Module_GateProxy_enter__E
80363e80   ti_sysbios_heaps_HeapMem_Module_GateProxy_leave__E
80363ea0   ti_sysbios_heaps_HeapMem_Module_GateProxy_query__E
8037cfd0   ti_sysbios_heaps_HeapMem_Module__FXNS__C
8037d6c0   ti_sysbios_heaps_HeapMem_Module__diagsEnabled__C
8037d6c4   ti_sysbios_heaps_HeapMem_Module__diagsIncluded__C
8037d6c8   ti_sysbios_heaps_HeapMem_Module__diagsMask__C
8037d6cc   ti_sysbios_heaps_HeapMem_Module__gateObj__C
8037d37a   ti_sysbios_heaps_HeapMem_Module__id__C
803801f4   ti_sysbios_heaps_HeapMem_Module__root__V
8037d1c0   ti_sysbios_heaps_HeapMem_Object__DESC__C
8037d1e0   ti_sysbios_heaps_HeapMem_Object__PARAMS__C
8037d6d0   ti_sysbios_heaps_HeapMem_Object__count__C
8035dea0   ti_sysbios_heaps_HeapMem_Object__create__S
803620c0   ti_sysbios_heaps_HeapMem_Object__delete__S
80360900   ti_sysbios_heaps_HeapMem_Object__get__S
8037d6d4   ti_sysbios_heaps_HeapMem_Object__table__C
803818a0   ti_sysbios_heaps_HeapMem_Object__table__V
803200a0   ti_sysbios_heaps_HeapMem_alloc__E
8031f420   ti_sysbios_heaps_HeapMem_free__E
80358b00   ti_sysbios_heaps_HeapMem_getStats__E
8035bb80   ti_sysbios_heaps_HeapMem_init__I
80363ec0   ti_sysbios_heaps_HeapMem_isBlocking__E
8037d6d8   ti_sysbios_heaps_HeapMem_reqAlignMask__C
8037d6dc   ti_sysbios_heaps_HeapMem_reqAlign__C
8037d6e0   ti_sysbios_knl_Clock_A_badThreadType__C
8034dc20   ti_sysbios_knl_Clock_Instance_finalize__F
8033ada0   ti_sysbios_knl_Clock_Instance_init__F
8037d6e4   ti_sysbios_knl_Clock_LM_begin__C
8037d6e8   ti_sysbios_knl_Clock_LM_tick__C
8037d6ec   ti_sysbios_knl_Clock_LW_delayed__C
8037d6f0   ti_sysbios_knl_Clock_Module_State_clockQ__O
8037d6f4   ti_sysbios_knl_Clock_Module__diagsEnabled__C
8037d6f8   ti_sysbios_knl_Clock_Module__diagsIncluded__C
8037d6fc   ti_sysbios_knl_Clock_Module__diagsMask__C
8037d39a   ti_sysbios_knl_Clock_Module__id__C
8037d3ba   ti_sysbios_knl_Clock_Module__loggerDefined__C
8037d700   ti_sysbios_knl_Clock_Module__loggerFxn1__C
8037d704   ti_sysbios_knl_Clock_Module__loggerFxn2__C
8037d708   ti_sysbios_knl_Clock_Module__loggerObj__C
803801fc   ti_sysbios_knl_Clock_Module__root__V
80380204   ti_sysbios_knl_Clock_Module__state__V
80363f00   ti_sysbios_knl_Clock_Module_startup__E
8035df20   ti_sysbios_knl_Clock_Module_startup__F
8037d200   ti_sysbios_knl_Clock_Object__DESC__C
8037d090   ti_sysbios_knl_Clock_Object__PARAMS__C
8035dfa0   ti_sysbios_knl_Clock_Object__create__S
80362100   ti_sysbios_knl_Clock_Object__destruct__S
80362140   ti_sysbios_knl_Clock_Params__init__S
80360960   ti_sysbios_knl_Clock_doTick__I
8035e020   ti_sysbios_knl_Clock_getTicks__E
80358bc0   ti_sysbios_knl_Clock_logTick__E
80352880   ti_sysbios_knl_Clock_startI__E
80356500   ti_sysbios_knl_Clock_start__E
8037d70c   ti_sysbios_knl_Clock_tickMode__C
8037d710   ti_sysbios_knl_Clock_tickSource__C
80338a60   ti_sysbios_knl_Clock_workFunc__E
8037d608   ti_sysbios_knl_Idle_funcList__A
8037d610   ti_sysbios_knl_Idle_funcList__C
8035e0a0   ti_sysbios_knl_Idle_loop__E
80363f40   ti_sysbios_knl_Queue_Instance_init__F
80380230   ti_sysbios_knl_Queue_Module__root__V
8037d220   ti_sysbios_knl_Queue_Object__DESC__C
8037d4e8   ti_sysbios_knl_Queue_Object__PARAMS__C
8037d714   ti_sysbios_knl_Queue_Object__count__C
8035e120   ti_sysbios_knl_Queue_Object__create__S
803621c0   ti_sysbios_knl_Queue_Object__destruct__S
803609c0   ti_sysbios_knl_Queue_Object__get__S
8037d718   ti_sysbios_knl_Queue_Object__table__C
80363f60   ti_sysbios_knl_Queue_empty__E
8037d71c   ti_sysbios_knl_Semaphore_A_badContext__C
8037d720   ti_sysbios_knl_Semaphore_A_noEvents__C
8037d724   ti_sysbios_knl_Semaphore_A_overflow__C
8037d728   ti_sysbios_knl_Semaphore_Instance_State_pendQ__O
80362200   ti_sysbios_knl_Semaphore_Instance_finalize__F
8034dd60   ti_sysbios_knl_Semaphore_Instance_init__F
8037d72c   ti_sysbios_knl_Semaphore_LM_pend__C
8037d730   ti_sysbios_knl_Semaphore_LM_post__C
8037d734   ti_sysbios_knl_Semaphore_Module__diagsEnabled__C
8037d738   ti_sysbios_knl_Semaphore_Module__diagsIncluded__C
8037d73c   ti_sysbios_knl_Semaphore_Module__diagsMask__C
8037d3da   ti_sysbios_knl_Semaphore_Module__id__C
8037d3fa   ti_sysbios_knl_Semaphore_Module__loggerDefined__C
8037d740   ti_sysbios_knl_Semaphore_Module__loggerFxn2__C
8037d744   ti_sysbios_knl_Semaphore_Module__loggerFxn4__C
8037d748   ti_sysbios_knl_Semaphore_Module__loggerObj__C
80380238   ti_sysbios_knl_Semaphore_Module__root__V
8037d240   ti_sysbios_knl_Semaphore_Object__DESC__C
8037d0b4   ti_sysbios_knl_Semaphore_Object__PARAMS__C
8035e1a0   ti_sysbios_knl_Semaphore_Object__create__S
80362240   ti_sysbios_knl_Semaphore_Object__delete__S
80362280   ti_sysbios_knl_Semaphore_Object__destruct__S
80381800   ti_sysbios_knl_Semaphore_Object__table__V
8035e220   ti_sysbios_knl_Semaphore_pendTimeout__I
8032b560   ti_sysbios_knl_Semaphore_pend__E
8033ea80   ti_sysbios_knl_Semaphore_post__E
80363f80   ti_sysbios_knl_Semaphore_reset__E
8037d74c   ti_sysbios_knl_Swi_LD_end__C
8037d750   ti_sysbios_knl_Swi_LM_begin__C
8037d754   ti_sysbios_knl_Swi_LM_post__C
80380ef8   ti_sysbios_knl_Swi_Module_State_0_readyQ__A
8037d758   ti_sysbios_knl_Swi_Module__diagsEnabled__C
8037d75c   ti_sysbios_knl_Swi_Module__diagsIncluded__C
8037d760   ti_sysbios_knl_Swi_Module__diagsMask__C
8037d41a   ti_sysbios_knl_Swi_Module__id__C
8037d43a   ti_sysbios_knl_Swi_Module__loggerDefined__C
8037d764   ti_sysbios_knl_Swi_Module__loggerFxn1__C
8037d768   ti_sysbios_knl_Swi_Module__loggerFxn4__C
8037d76c   ti_sysbios_knl_Swi_Module__loggerObj__C
80380240   ti_sysbios_knl_Swi_Module__root__V
80380248   ti_sysbios_knl_Swi_Module__state__V
80363fa0   ti_sysbios_knl_Swi_Module_startup__E
80360a20   ti_sysbios_knl_Swi_Module_startup__F
8037d770   ti_sysbios_knl_Swi_Object__count__C
80360a80   ti_sysbios_knl_Swi_Object__get__S
8037d774   ti_sysbios_knl_Swi_Object__table__C
80381618   ti_sysbios_knl_Swi_Object__table__V
80363fc0   ti_sysbios_knl_Swi_disable__E
8034dea0   ti_sysbios_knl_Swi_post__E
80352980   ti_sysbios_knl_Swi_restoreHwi__E
80340880   ti_sysbios_knl_Swi_run__I
80348e80   ti_sysbios_knl_Swi_schedule__I
8035e2a0   ti_sysbios_knl_Swi_startup__E
8037d778   ti_sysbios_knl_Task_A_badPriority__C
8037d77c   ti_sysbios_knl_Task_A_badTaskState__C
8037d780   ti_sysbios_knl_Task_A_badThreadType__C
8037d784   ti_sysbios_knl_Task_A_badTimeout__C
8037d788   ti_sysbios_knl_Task_A_noPendElem__C
8037d78c   ti_sysbios_knl_Task_E_spOutOfBounds__C
8037d790   ti_sysbios_knl_Task_E_stackOverflow__C
80370a00   ti_sysbios_knl_Task_Instance_State_0_hookEnv__A
00852b00   ti_sysbios_knl_Task_Instance_State_0_stack__A
80370a08   ti_sysbios_knl_Task_Instance_State_1_hookEnv__A
00853f00   ti_sysbios_knl_Task_Instance_State_1_stack__A
80370a10   ti_sysbios_knl_Task_Instance_State_2_hookEnv__A
00854700   ti_sysbios_knl_Task_Instance_State_2_stack__A
80370a18   ti_sysbios_knl_Task_Instance_State_3_hookEnv__A
00856700   ti_sysbios_knl_Task_Instance_State_3_stack__A
80324ea0   ti_sysbios_knl_Task_Instance_finalize__F
8032d3c0   ti_sysbios_knl_Task_Instance_init__F
8037d794   ti_sysbios_knl_Task_LD_block__C
8037d798   ti_sysbios_knl_Task_LD_exit__C
8037d79c   ti_sysbios_knl_Task_LD_ready__C
8037d7a0   ti_sysbios_knl_Task_LM_setPri__C
8037d7a4   ti_sysbios_knl_Task_LM_sleep__C
8037d7a8   ti_sysbios_knl_Task_LM_switch__C
80380f78   ti_sysbios_knl_Task_Module_State_0_readyQ__A
8037d7ac   ti_sysbios_knl_Task_Module_State_inactiveQ__O
8037d7b0   ti_sysbios_knl_Task_Module_State_terminatedQ__O
8037d7b4   ti_sysbios_knl_Task_Module__diagsEnabled__C
8037d7b8   ti_sysbios_knl_Task_Module__diagsIncluded__C
8037d7bc   ti_sysbios_knl_Task_Module__diagsMask__C
8037d582   ti_sysbios_knl_Task_Module__id__C
8037d5b6   ti_sysbios_knl_Task_Module__loggerDefined__C
8037d7c0   ti_sysbios_knl_Task_Module__loggerFxn2__C
8037d7c4   ti_sysbios_knl_Task_Module__loggerFxn4__C
8037d7c8   ti_sysbios_knl_Task_Module__loggerObj__C
80380264   ti_sysbios_knl_Task_Module__root__V
8038026c   ti_sysbios_knl_Task_Module__state__V
80363fe0   ti_sysbios_knl_Task_Module_startup__E
80335f80   ti_sysbios_knl_Task_Module_startup__F
8037d260   ti_sysbios_knl_Task_Object__DESC__C
8037cdc0   ti_sysbios_knl_Task_Object__PARAMS__C
8037d7cc   ti_sysbios_knl_Task_Object__count__C
80358c80   ti_sysbios_knl_Task_Object__create__S
803622c0   ti_sysbios_knl_Task_Object__delete__S
80362300   ti_sysbios_knl_Task_Object__first__S
80360ae0   ti_sysbios_knl_Task_Object__get__S
8037d7d0   ti_sysbios_knl_Task_Object__heap__C
80362340   ti_sysbios_knl_Task_Object__next__S
8037d7d4   ti_sysbios_knl_Task_Object__table__C
80380c80   ti_sysbios_knl_Task_Object__table__V
80362380   ti_sysbios_knl_Task_Params__init__S
80364000   ti_sysbios_knl_Task_SupportProxy_Module__startupDone__S
80364020   ti_sysbios_knl_Task_SupportProxy_checkStack__E
80364040   ti_sysbios_knl_Task_SupportProxy_getStackAlignment__E
80364060   ti_sysbios_knl_Task_SupportProxy_start__E
80364080   ti_sysbios_knl_Task_SupportProxy_swap__E
8037d7d8   ti_sysbios_knl_Task_allBlockedFunc__C
80360b40   ti_sysbios_knl_Task_allBlockedFunction__I
8034dfe0   ti_sysbios_knl_Task_blockI__E
80345240   ti_sysbios_knl_Task_checkStacks__E
8037d7dc   ti_sysbios_knl_Task_defaultStackHeap__C
8037d7e0   ti_sysbios_knl_Task_defaultStackSize__C
8035e320   ti_sysbios_knl_Task_deleteTerminatedTasksFunc__I
8037d5da   ti_sysbios_knl_Task_deleteTerminatedTasks__C
803640a0   ti_sysbios_knl_Task_disable__E
80360ba0   ti_sysbios_knl_Task_enter__I
8033b020   ti_sysbios_knl_Task_exit__E
803640c0   ti_sysbios_knl_Task_getHookContext__E
8037cec8   ti_sysbios_knl_Task_hooks__A
8037d618   ti_sysbios_knl_Task_hooks__C
8037d5ea   ti_sysbios_knl_Task_initStackFlag__C
8037d7e4   ti_sysbios_knl_Task_numConstructedTasks__C
8037d7e8   ti_sysbios_knl_Task_numPriorities__C
80343600   ti_sysbios_knl_Task_postInit__I
8035e3a0   ti_sysbios_knl_Task_restore__E
80340aa0   ti_sysbios_knl_Task_schedule__I
803640e0   ti_sysbios_knl_Task_self__E
80364100   ti_sysbios_knl_Task_setHookContext__E
8032d780   ti_sysbios_knl_Task_setPri__E
803623c0   ti_sysbios_knl_Task_sleepTimeout__I
80338d00   ti_sysbios_knl_Task_sleep__E
80340cc0   ti_sysbios_knl_Task_startup__E
80349000   ti_sysbios_knl_Task_unblockI__E
8037d7ec   ti_sysbios_timers_timer64_Timer_A_notAvailable__C
8037d7f0   ti_sysbios_timers_timer64_Timer_E_cannotSupport__C
803809e0   ti_sysbios_timers_timer64_Timer_Module_State_0_device__A
80380ff8   ti_sysbios_timers_timer64_Timer_Module_State_0_gctrl__A
80381078   ti_sysbios_timers_timer64_Timer_Module_State_0_handles__A
803810f8   ti_sysbios_timers_timer64_Timer_Module_State_0_intFreqs__A
8037d7f4   ti_sysbios_timers_timer64_Timer_Module__diagsEnabled__C
8037d7f8   ti_sysbios_timers_timer64_Timer_Module__diagsIncluded__C
8037d7fc   ti_sysbios_timers_timer64_Timer_Module__diagsMask__C
8037d646   ti_sysbios_timers_timer64_Timer_Module__id__C
803802a0   ti_sysbios_timers_timer64_Timer_Module__root__V
80362400   ti_sysbios_timers_timer64_Timer_Module__startupDone__F
80364120   ti_sysbios_timers_timer64_Timer_Module__startupDone__S
803802a8   ti_sysbios_timers_timer64_Timer_Module__state__V
80364140   ti_sysbios_timers_timer64_Timer_Module_startup__E
80321e00   ti_sysbios_timers_timer64_Timer_Module_startup__F
803813d0   ti_sysbios_timers_timer64_Timer_Object__table__V
80364160   ti_sysbios_timers_timer64_Timer_TimerSupportProxy_enable__E
8037d800   ti_sysbios_timers_timer64_Timer_anyMask__C
8037d804   ti_sysbios_timers_timer64_Timer_freqDivisor__C
8035e420   ti_sysbios_timers_timer64_Timer_getCount__E
8035e420   ti_sysbios_timers_timer64_Timer_getExpiredCounts__E
803437e0   ti_sysbios_timers_timer64_Timer_getFreq__E
8035e4a0   ti_sysbios_timers_timer64_Timer_getPeriod__E
8037d808   ti_sysbios_timers_timer64_Timer_numLocalTimers__C
8037d80c   ti_sysbios_timers_timer64_Timer_numTimerDevices__C
80364180   ti_sysbios_timers_timer64_Timer_setNextTick__E
80345400   ti_sysbios_timers_timer64_Timer_setPeriodMicroSecs__E
80347640   ti_sysbios_timers_timer64_Timer_start__E
8037d64e   ti_sysbios_timers_timer64_Timer_startupNeeded__C
803565e0   ti_sysbios_timers_timer64_Timer_startup__E
80358d40   ti_sysbios_timers_timer64_Timer_stop__E
80371e48   tpseudo
80383580   tskADS1298Init
8038357c   tskNetworkInit
803722c8   udp6_stats
8037223c   udps
80383380   uiLL2_scrub_addr
8035e520   unlink
80328c68   unlock_mem_prot_regs
80372260   upseudo
803722a0   vlan_mcb
80360c00   vsprintf
8035bc20   write
80313f90   writeNandPage
80360c60   writemsg
8037d810   xdc_runtime_Assert_E_assertFailed__C
8035bcc0   xdc_runtime_Assert_raise__I
8037d814   xdc_runtime_Core_A_initializedParams__C
8037d818   xdc_runtime_Core_Module__diagsEnabled__C
8037d81c   xdc_runtime_Core_Module__diagsIncluded__C
8037d820   xdc_runtime_Core_Module__diagsMask__C
8037d656   xdc_runtime_Core_Module__id__C
8035e5a0   xdc_runtime_Core_assignLabel__I
8035e620   xdc_runtime_Core_assignParams__I
8033b2a0   xdc_runtime_Core_createObject__I
80352b80   xdc_runtime_Core_deleteObject__I
8037d824   xdc_runtime_Error_E_generic__C
8037d828   xdc_runtime_Error_E_memory__C
8037d82c   xdc_runtime_Error_Module__diagsEnabled__C
8037d830   xdc_runtime_Error_Module__diagsIncluded__C
8037d834   xdc_runtime_Error_Module__diagsMask__C
8037d8b0   xdc_runtime_Error_Module__loggerDefined__C
8037d838   xdc_runtime_Error_Module__loggerFxn8__C
8037d83c   xdc_runtime_Error_Module__loggerObj__C
803802bc   xdc_runtime_Error_Module__state__V
803641c0   xdc_runtime_Error_check__E
80362440   xdc_runtime_Error_check__F
803641e0   xdc_runtime_Error_getMsg__E
80364200   xdc_runtime_Error_getMsg__F
80364220   xdc_runtime_Error_init__E
80362480   xdc_runtime_Error_init__F
8037d8b2   xdc_runtime_Error_maxDepth__C
8037d840   xdc_runtime_Error_policy__C
80364240   xdc_runtime_Error_print__E
803566c0   xdc_runtime_Error_print__F
8037d844   xdc_runtime_Error_raiseHook__C
803624c0   xdc_runtime_Error_raiseX__E
8033b520   xdc_runtime_Error_raiseX__F
80364260   xdc_runtime_Gate_enterSystem__E
80364280   xdc_runtime_Gate_enterSystem__F
803642a0   xdc_runtime_Gate_leaveSystem__E
80362500   xdc_runtime_Gate_leaveSystem__F
8037d848   xdc_runtime_IFilterLogger_Interface__BASE__C
8037d84c   xdc_runtime_IGateProvider_Interface__BASE__C
8037d850   xdc_runtime_IHeap_Interface__BASE__C
8037d854   xdc_runtime_ILogger_Interface__BASE__C
8037d858   xdc_runtime_IModule_Interface__BASE__C
8037d85c   xdc_runtime_Log_L_error__C
8037d860   xdc_runtime_LoggerBuf_E_badLevel__C
803625c0   xdc_runtime_LoggerBuf_Handle__label__S
80370a20   xdc_runtime_LoggerBuf_Instance_State_0_entryArr__A
80362600   xdc_runtime_LoggerBuf_Instance_finalize__F
80358ec0   xdc_runtime_LoggerBuf_Instance_init__F
803642c0   xdc_runtime_LoggerBuf_Module_GateProxy_enter__E
803642e0   xdc_runtime_LoggerBuf_Module_GateProxy_leave__E
8037ccd4   xdc_runtime_LoggerBuf_Module__FXNS__C
8037d864   xdc_runtime_LoggerBuf_Module__gateObj__C
8037d8b4   xdc_runtime_LoggerBuf_Module__id__C
803802c0   xdc_runtime_LoggerBuf_Module__root__V
803802c8   xdc_runtime_LoggerBuf_Module__state__V
80364300   xdc_runtime_LoggerBuf_Module_startup__E
8035bd60   xdc_runtime_LoggerBuf_Module_startup__F
8037d280   xdc_runtime_LoggerBuf_Object__DESC__C
8037cff8   xdc_runtime_LoggerBuf_Object__PARAMS__C
8037d868   xdc_runtime_LoggerBuf_Object__count__C
80358f80   xdc_runtime_LoggerBuf_Object__create__S
80362640   xdc_runtime_LoggerBuf_Object__delete__S
80360cc0   xdc_runtime_LoggerBuf_Object__get__S
8037d86c   xdc_runtime_LoggerBuf_Object__table__C
803816e0   xdc_runtime_LoggerBuf_Object__table__V
80364320   xdc_runtime_LoggerBuf_TimestampProxy_get64__E
80364340   xdc_runtime_LoggerBuf_disable__E
80364360   xdc_runtime_LoggerBuf_disable__F
80364380   xdc_runtime_LoggerBuf_enable__E
803643a0   xdc_runtime_LoggerBuf_enable__F
8037d8b6   xdc_runtime_LoggerBuf_filterByLevel__C
8035e6a0   xdc_runtime_LoggerBuf_filterOutEvent__I
803643c0   xdc_runtime_LoggerBuf_getFilterLevel__E
80352c80   xdc_runtime_LoggerBuf_getFilterLevel__F
80362680   xdc_runtime_LoggerBuf_setFilterLevel__E
80350f40   xdc_runtime_LoggerBuf_setFilterLevel__F
8037d870   xdc_runtime_LoggerBuf_statusLogger__C
803643e0   xdc_runtime_LoggerBuf_write0__E
803626c0   xdc_runtime_LoggerBuf_write0__F
80362700   xdc_runtime_LoggerBuf_write1__E
80362740   xdc_runtime_LoggerBuf_write1__F
80362780   xdc_runtime_LoggerBuf_write2__E
803627c0   xdc_runtime_LoggerBuf_write2__F
80362800   xdc_runtime_LoggerBuf_write4__E
803477e0   xdc_runtime_LoggerBuf_write4__F
8035be00   xdc_runtime_LoggerBuf_write8__E
8033ecc0   xdc_runtime_LoggerBuf_write8__F
80364400   xdc_runtime_Memory_HeapProxy_alloc__E
80364420   xdc_runtime_Memory_HeapProxy_free__E
8037d8b8   xdc_runtime_Memory_Module__id__C
803802d0   xdc_runtime_Memory_Module__state__V
80364440   xdc_runtime_Memory_alloc__E
803567a0   xdc_runtime_Memory_alloc__F
80364460   xdc_runtime_Memory_calloc__E
80360d20   xdc_runtime_Memory_calloc__F
8037d874   xdc_runtime_Memory_defaultHeapInstance__C
80364480   xdc_runtime_Memory_free__E
80362840   xdc_runtime_Memory_free__F
803802d4   xdc_runtime_Registry_Module__state__V
803644a0   xdc_runtime_Registry_findById__E
80362880   xdc_runtime_Registry_findById__F
803802dc   xdc_runtime_Startup_Module__state__V
00000001   xdc_runtime_Startup__EXECFXN__C
00000001   xdc_runtime_Startup__RESETFXN__C
8037d878   xdc_runtime_Startup_execImpl__C
803644c0   xdc_runtime_Startup_exec__E
80352d80   xdc_runtime_Startup_exec__F
803628c0   xdc_runtime_Startup_exec__I
8037d620   xdc_runtime_Startup_firstFxns__A
8037d628   xdc_runtime_Startup_firstFxns__C
8037d630   xdc_runtime_Startup_lastFxns__A
8037d638   xdc_runtime_Startup_lastFxns__C
8037d87c   xdc_runtime_Startup_maxPasses__C
803644e0   xdc_runtime_Startup_reset__I
8037d2e0   xdc_runtime_Startup_sfxnRts__A
8037d880   xdc_runtime_Startup_sfxnRts__C
8037cd10   xdc_runtime_Startup_sfxnTab__A
8037d884   xdc_runtime_Startup_sfxnTab__C
8037d888   xdc_runtime_Startup_startModsFxn__C
8033cf60   xdc_runtime_Startup_startMods__I
80364500   xdc_runtime_SysStd_abort__E
80360d80   xdc_runtime_SysStd_abort__F
80364520   xdc_runtime_SysStd_exit__E
80364540   xdc_runtime_SysStd_exit__F
80364560   xdc_runtime_SysStd_putch__E
80364580   xdc_runtime_SysStd_putch__F
803645a0   xdc_runtime_SysStd_ready__E
803645c0   xdc_runtime_SysStd_ready__F
803645e0   xdc_runtime_System_Module_GateProxy_enter__E
80364600   xdc_runtime_System_Module_GateProxy_leave__E
803817b0   xdc_runtime_System_Module_State_0_atexitHandlers__A
8037d88c   xdc_runtime_System_Module__gateObj__C
803802e4   xdc_runtime_System_Module__state__V
80364620   xdc_runtime_System_Module_startup__E
80364640   xdc_runtime_System_Module_startup__F
80364660   xdc_runtime_System_SupportProxy_abort__E
80364680   xdc_runtime_System_SupportProxy_exit__E
803646a0   xdc_runtime_System_SupportProxy_putch__E
803646c0   xdc_runtime_System_SupportProxy_ready__E
803646e0   xdc_runtime_System_abort__E
80362900   xdc_runtime_System_abort__F
80362940   xdc_runtime_System_aprintf__E
80360de0   xdc_runtime_System_aprintf_va__F
80364700   xdc_runtime_System_atexit__E
8035e720   xdc_runtime_System_atexit__F
80360de0   xdc_runtime_System_avprintf__F
80318a40   xdc_runtime_System_doPrint__I
80364720   xdc_runtime_System_exit__E
80364740   xdc_runtime_System_exit__F
8037d890   xdc_runtime_System_extendFxn__C
80359040   xdc_runtime_System_formatNum__I
80364760   xdc_runtime_System_lastFxn__I
8037d894   xdc_runtime_System_maxAtexitHandlers__C
80331020   xdc_runtime_System_printfExtend__I
80362980   xdc_runtime_System_printf__E
80360e40   xdc_runtime_System_printf_va__F
8035e7a0   xdc_runtime_System_rtsExit__I
803647a0   xdc_runtime_System_sprintf_va__F
80360e40   xdc_runtime_System_vprintf__F
80364780   xdc_runtime_System_vsprintf__E
803647a0   xdc_runtime_System_vsprintf__F
803802f0   xdc_runtime_Text_Module__state__V
8037d8ba   xdc_runtime_Text_charCnt__C
803774a0   xdc_runtime_Text_charTab__A
8037d898   xdc_runtime_Text_charTab__C
803647c0   xdc_runtime_Text_cordText__E
80360ea0   xdc_runtime_Text_cordText__F
8037d8bc   xdc_runtime_Text_isLoaded__C
8037d89c   xdc_runtime_Text_nameEmpty__C
8037d8a0   xdc_runtime_Text_nameStatic__C
8037d8a4   xdc_runtime_Text_nameUnknown__C
8037bcf8   xdc_runtime_Text_nodeTab__A
8037d8a8   xdc_runtime_Text_nodeTab__C
8035e820   xdc_runtime_Text_printVisFxn__I
803647e0   xdc_runtime_Text_putLab__E
80351060   xdc_runtime_Text_putLab__F
80352e80   xdc_runtime_Text_putMod__F
80364800   xdc_runtime_Text_putSite__E
80349180   xdc_runtime_Text_putSite__F
8037d8be   xdc_runtime_Text_registryModsLastId__C
80364820   xdc_runtime_Text_ropeText__E
803629c0   xdc_runtime_Text_ropeText__F
8037d8c0   xdc_runtime_Text_unnamedModsLastId__C
80352f80   xdc_runtime_Text_visitRope2__I
8037d8ac   xdc_runtime_Text_visitRopeFxn__C
80362a00   xdc_runtime_Text_visitRope__I
8035e8a0   xdc_runtime_Text_xprintf__I
8030c540   xmc_setup


GLOBAL SYMBOLS: SORTED BY Symbol Address 

address    name
--------   ----
00000000   _argsize
00000001   __TI_args_main
00000001   xdc_runtime_Startup__EXECFXN__C
00000001   xdc_runtime_Startup__RESETFXN__C
00001000   __TI_STACK_SIZE
00800000   ti_ndk_config_Global_pBufMem
0084e000   ti_ndk_config_Global_pHdrMem
00852b00   ti_sysbios_knl_Task_Instance_State_0_stack__A
00853f00   ti_sysbios_knl_Task_Instance_State_1_stack__A
00854700   ti_sysbios_knl_Task_Instance_State_2_stack__A
00856700   ti_sysbios_knl_Task_Instance_State_3_stack__A
00856f00   gHostDesc
0085af00   gPAInst
0085b000   gMemL2Ram
0085b3e8   gMemL3Ram
0085c388   _stack
0085d388   __TI_STACK_END
0085d390   DebugLog
0085da00   gPaTxQHnd
0085da24   gTxReturnQHnd
0085da28   gTxFreeQHnd
0085da2c   gRxFreeQHnd
0085da30   gRxQHnd
0085da34   gPaCfgCmdRespQHnd
0085da38   gRxFlowHnd
0085da40   gPaL2Handles
0085da68   gPaL3Handles
0085dab8   gPaL4Handles
0085dc00   gHiPriAccumList
0085dd00   gAccChannelNum
0085dd04   gTxPort
0085dd08   gTxCounter
0085dd0c   gRxCounter
0085dd10   gTxDropCounter
0085dd14   gRxDropCounter
0085dd20   gGlobalFreeQHnd
0085dd28   gPassCpdmaTxChanHnd
0085dd50   gPassCpdmaRxChanHnd
0085ddb0   gPassCpdmaHnd
0085ddb4   gPAInstHnd
0085ddb8   gQPopErrorCounter
0085ddbc   gQPushErrorCounter
80000000   __ASM__
80000000   ti_sysbios_heaps_HeapMem_Instance_State_0_buf__A
80000060   __ISA__
80000078   __PLAT__
800000a0   __TARG__
800000c8   __TRDR__
80300ad8   KeyStone_main_PLL_init
80300f6c   KeyStone_PLL_init
80301118   KeyStone_PASS_PLL_init
803011a8   KeyStone_DDR_PLL_init
80301234   calc_cycle_measure_overhead
8030128c   TSC_init
803012a0   TSC_delay_ms
80301338   TSC_delay_us
803013d8   Reset_Timer
80301428   Timer64_Init
803016e4   Service_Watchdog
80301728   KeyStone_enable_PSC_module
8030178c   KeyStone_disable_PSC_module
803017e0   KeyStone_disable_PSC_Power_Domain
80301824   EDMA_channel_TC_cfg
80301888   EDMA_TC_priority_cfg
803018e0   EDMA_init
80301e40   EDMA_wait
80301f04   EDMA_copy
80302118   EDMA_fill
80302484   IDMA_wait
803024b4   IDMA_copy
80302554   EDMA_CC_error_handler
80302764   EDMA_TC_error_handler
80302890   EDMA_error_handler
80302998   L1_MPPA_setup
80302a40   L1P_memory_protection_cfg
80302ad0   L1D_memory_protection_cfg
80302b64   L1_cache_protection
80302b74   LL2_MPPA_setup
80302c10   LL2_Memory_Protection_cfg
80302da4   KeyStone_CorePac_AID_map
80302e2c   KeyStone_PrivID_Remap
80302ea8   KeyStone_SMS_MPAX_setup
80302f88   KeyStone_SES_MPAX_setup
80303068   KeyStone_MSMC_MP_interrupt_en
803030d0   memory_protection_exception_handler
803031e8   KeyStone_MSMC_protection_exception_handler
803032e0   TN_MPU5_constant
8030332c   KeyStone_MPU_range_setup
803033ac   KeyStone_MPU_setup
803035b0   KeyStone_MPU_MPPA_modify
803036a8   KeyStone_MPU_interrupts_enable
80303884   KeyStone_peripherals_MPU_fault_status
80303980   KeyStone_peripherals_MPU_excepiton_handler
80303a60   KeyStone_SL2_EDC_enable
80303b20   KeyStone_SL2_EDC_interrupt_en
80303b74   LL2_EDC_setup
80303c34   LL2_EDC_scrub
80303ccc   L1P_EDC_setup
80303d50   LL2_EDC_handler
80303f64   L1P_ED_handler
80304088   KeyStone_SL2_EDC_handler
8030436c   KeyStone_CIC_exception_events_mapping
803047c4   KeyStone_Exception_cfg
803049d0   Bus_error_handler
80304aac   KeyStone_CIC_EXC_handler
80304eec   KeyStone_EXC_external
803053b0   EXC_internal
80305470   EXC_NMI
80305488   EXC_swgen
803054a0   KeyStone_print_device_info
80305534   Memory_Address_Test
80305678   Memory_Fill_Test
803057b8   Memory_Data_Bus_Test
80305be8   Memory_Address_Bus_Test
8030604c   Memory_quick_test
80307140   emac_display_linkstatus
80307438   EmacRxPktISR
80307d50   Setup_Tx
80308028   Setup_Rx
803084d4   Init_MAC
80308558   Init_MDIO
80308560   Init_Switch
803085e0   Switch_update_addr
80308614   Verify_Init
80308810   Init_Cpsw
803088d8   Init_PASS
80308924   Add_MACAddress
80308e24   nimu_getrxdrops
80308e34   nimu_gettxdrops
803092d4   serial_num_isvalid
803093ec   platform_get_info
803096f4   platform_init
80309934   platform_get_coreid
80309948   platform_get_emac_info
803099d8   platform_get_macaddr
80309a6c   platform_get_phy_addr
80309a80   platform_phy_link_status
80309ae4   platform_get_switch_state
80309af0   platform_uart_read
80309b58   platform_uart_write
80309b74   platform_uart_set_baudrate
80309ba8   platform_uart_init
80309bc8   platform_led
80309c10   platform_delay
80309c70   platform_delaycycles
80309cb0   platform_external_memory_test
80309d30   platform_internal_memory_test
80309ea4   platform_write_configure
80309ee0   platform_write
80309ff4   platform_device_open
8030a178   platform_device_close
8030a210   platform_device_read_spare_data
8030a2b0   platform_device_mark_block_bad
8030a3d0   platform_device_write_spare_data
8030a470   platform_device_read
8030a5c8   platform_offset_to_blocknpage
8030a6f0   platform_blocknpage_to_offset
8030a7e4   platform_device_write
8030ad14   platform_device_erase_block
8030ade0   Convert_CoreLocal2GlobalAddr
8030bc94   prog_pll1_values
8030bdf8   CorePllcHwSetup
8030c054   CorePllcGetHwSetup
8030c140   SetPaPllConfig
8030c334   PowerUpDomains
8030c3d0   SetDDR3PllConfig
8030c540   xmc_setup
8030c594   DDR3Init
8030c980   TcpInput
8030e380   TCP6Input
8030fec8   KeyStone_SPI_init
80310428   KeyStone_SPI_wait_flag
803104d4   KeyStone_SPIDAT1_format
803105f4   KeyStone_SPI_TxRx
803108f8   KeyStone_set_SPIDAT1_format
803109a8   KeyStone_SPIDAT1_buffer_construct
80310ab8   KeyStone_SPI_EDMA_TxRx
80311120   TcpOutput
80312360   TCP6Output
80313c0c   NandReadSpareArea
80313cf8   readNandPage
80313f2c   NandWriteDataBytes
80313f90   writeNandPage
80314190   NandWriteSpareArea
803142b8   nandFlashBlockErase
80314518   NandGetDetails
80314620   nandInit
80314684   i2cEepromWriteBlock
8031494c   i2cEepromRead
80314b50   i2cEepromWrite
80314c70   i2cEepromWriteByteAddr
80314dc8   i2cEepromMacWrite
80315060   i2cEepromMacRead
80315628   res_mgr_qmss_get_freeq
80315638   QMSS_QPOP
803156d4   QMSS_QPUSH
80315750   QMSS_QPUSHDESCSIZE
803157c8   res_mgr_init_qmss
803159e4   res_mgr_stop_qmss
80315a04   res_mgr_cppi_get_passhandle
80315a14   res_mgr_init_cppi
80315c78   res_mgr_stop_cppi
80315e58   res_mgr_get_painstance
80315e6c   res_mgr_init_pass
803160c0   IPRxPacket
803176e0   IPTxPacket
803180a0   lcpInput
80318a40   xdc_runtime_System_doPrint__I
803193e0   httpClientProcess
80319cd8   SPI_Init
80319d44   EVM_init
80319dd8   main
80319dec   NetworkInit
8031a1d0   ads1298_ISR
8031a1e4   ads1298_drdy_init
8031a24c   ADS1298Init
8031a4a0   Qmss_insertMemoryRegion
8031ac80   ipcpInput
8031bc20   SockSet
8031c3e0   fdPoll
8031cb80   ti_sysbios_family_c64p_Exception_handler__I
8031d300   Pa_addMac
8031e0e0   ICMPv6RecvRA
8031e760   Cppi_configureRxFlow
8031f248   gpioInit
8031f294   gpioSetDirection
8031f2d4   gpioSetOutput
8031f2f4   gpioClearOutput
8031f314   gpioReadInput
8031f370   gpioEnableGlobalInterrupt
8031f388   gpioDisableGlobalInterrupt
8031f3a0   gpioSetRisingEdgeInterrupt
8031f3c0   gpioClearRisingEdgeInterrupt
8031f3e0   gpioSetFallingEdgeInterrupt
8031f400   gpioClearFallingEdgeInterrupt
8031f420   ti_sysbios_heaps_HeapMem_free__E
8031fa80   Rt6Create
803200a0   ti_sysbios_heaps_HeapMem_alloc__E
803206c0   Exception_service_routine
80320a70   Nested_Exception_service_routine
80320cc0   IPReasm
80321280   __c6xabi_divd
80321e00   ti_sysbios_timers_timer64_Timer_Module_startup__F
803223c0   ICMPInput
80322990   spi_claim
80322b38   spi_release
80322b50   spi_xfer
80322c84   spi_cmd
80322ce8   spi_cmd_read
80322d48   spi_cmd_write
80322da8   spi_read_word
80322e60   spi_write_word
80322f00   pppEvent
80323480   IPv6IPAddressToString
80323de0   configSerdes
80323e58   Init_SGMII
80323f40   SockNew
80324a00   nor_get_details
80324a8c   nor_init
80324b04   nor_read
80324b94   nor_write
80324d74   nor_erase
80324ea0   ti_sysbios_knl_Task_Instance_finalize__F
803253a0   UdpInput
80325d60   Cppi_txChannelOpen
80326220   Sock6Connect
803266e0   Sock6Set
80326ba0   getBoardVersion
80326bec   getFpgaDevID
80326c38   fpgaControlUserLEDs
80326cf8   fpgaDisableNandWriteProtect
80326d40   fpgaEnableNandWriteProtect
80326d84   fpgaDisableNorWriteProtect
80326dc8   fpgaEnableNorWriteProtect
80326e0c   fpgaDisableEepromWriteProtect
80326e50   fpgaEnableEepromWriteProtect
80326e94   fpgaGetUserSwitch
80326ee0   fpgaGetAMCDetect
80326f24   fpgaWriteConfigurationRegister
80326fd0   fpgaReadConfigurationRegister
80327060   Bind6New
80327500   LLIRxPacket
803279a0   Sock6Recv
80327e40   SockRecv
803282e0   _printfi
80328740   pppNew
80328ba0   lock_mem_prot_regs
80328c68   unlock_mem_prot_regs
80328d30   KeyStone_MPAX_seg_setup
80328ed4   KeyStone_XMC_MPAX_setup
80328fe0   Cppi_rxChannelOpen
80329420   Sock6New
80329860   chapInput
80329ca0   fdSelect
8032ad60   Sock6Send
8032b160   efs_filecheck
8032b560   ti_sysbios_knl_Semaphore_pend__E
8032b960   IPv6TxFragPacket
8032bd40   Cppi_initDescriptor
8032c100   IPv6TxPacket
8032c880   SockSend
8032cc40   TCP6TimeoutCheck
8032d000   TcpTimeoutCheck
8032d3c0   ti_sysbios_knl_Task_Instance_init__F
8032d780   ti_sysbios_knl_Task_setPri__E
8032db40   NIMUIoctl
8032dee0   RtCreate
8032e280   SBRead
8032e620   _mmCheck
8032e9c0   fputs
8032ed60   papInput
8032f100   ICMPv6RxPacket
8032f480   IGMPInput
8032f800   Sock6Notify
8032fb80   SockConnect
8032ff00   SockNotify
80330280   dhcpPacketProcess
80330600   ICMPv6SendParameterProblem
80330cc0   LLITxIpPacket
80331020   xdc_runtime_System_printfExtend__I
80331380   Pa_create
803316c0   Qmss_init
80331a00   mmAlloc
80331d40   pppoeSI
80332080   CfgAddEntry
803323a0   ICMPv6RecvRedirect
80333020   UartInit
80333178   UartSetBaudRate
803331f0   UartReadBaudRate
80333260   UartReadData
8033328c   UartWriteData
803332ec   UartIsDataReady
80333340   ICMPv6RecvNS
80333640   ICMPv6SendDstUnreachable
80333940   ICMPv6SendTimeExceeded
80333f40   Sock6PcbBind
80334240   Udp6Input
80334540   inet_aton
80334894   Osal_platformMalloc
803348c8   Osal_platformFree
803348f0   Osal_platformSpiCsEnter
8033490c   Osal_platformSpiCsExit
80334918   Osal_nimuMalloc
8033494c   Osal_nimuFree
80334974   Osal_cppiCsEnter
80334990   Osal_cppiCsExit
803349a0   Osal_cppiMalloc
803349d8   Osal_cppiFree
80334a04   Osal_cppiBeginMemAccess
80334a14   Osal_cppiEndMemAccess
80334a28   Osal_qmssCsEnter
80334a44   Osal_qmssCsExit
80334a50   Osal_qmssMtCsEnter
80334a54   Osal_qmssMtCsExit
80334a68   Osal_qmssMalloc
80334a98   Osal_qmssFree
80334ac4   Osal_qmssBeginMemAccess
80334ad4   Osal_qmssEndMemAccess
80334ae8   Osal_paBeginMemAccess
80334af8   Osal_paEndMemAccess
80334b0c   Osal_paMtCsEnter
80334b20   Osal_paMtCsExit
80334b40   ti_sysbios_family_c64p_Hwi_dispatchC__I
80335120   Pa_forwardResult
80335400   Rt6Find
803359c0   UdpOutput
80335f80   ti_sysbios_knl_Task_Module_startup__F
80336260   BindNew
80336520   SB6Read
803367e0   Sock6PcbResolve
80336aa0   Udp6Output
80336d60   pppInput
80337020   IPv6ParseExtnHeaders
803372c0   NodeAdd
80337560   Rt6Free
80337800   RtFind
80337d40   SockClose
80337fe0   TCP6PrSetOption
80338280   TcpPrSetOption
803387c0   ti_sysbios_family_c66_tci66xx_CpIntc_Module_startup__F
80338a60   ti_sysbios_knl_Clock_workFunc__E
80338d00   TaskSleep
80338d00   ti_sysbios_knl_Task_sleep__E
80338fa0   DHCPOpen
80339220   ICMPGenPacket
803399a0   SockPcbResolve
80339c20   SockRecvNC
80339ea0   TCP6GenPacket
8033a120   __c6xabi_divf
8033ada0   ti_sysbios_knl_Clock_Instance_init__F
8033b020   TaskExit
8033b020   ti_sysbios_knl_Task_exit__E
8033b2a0   xdc_runtime_Core_createObject__I
8033b520   xdc_runtime_Error_raiseX__F
8033b7a0   ICMPv6SendNA
8033ba00   ICMPv6SendNS
8033bc60   LLI6TxIPPacket
8033bec0   NIMUReceivePacket
8033c120   RawEthSockSet
8033c380   SB6Write
8033c5e0   SBWrite
8033c840   Sock6Close
8033caa0   SockPcbBind
8033cd00   httpParseRecv
8033cf60   xdc_runtime_Startup_startMods__I
8033d1c0   Cppi_open
8033d400   DaemonNew
8033d640   Pa_resetControl
8033d880   PipeRecv
8033dac0   RawInput
8033dd00   __c6xabi_divull
8033e600   dhcpState
8033e840   ti_sysbios_family_c64p_Exception_internalHandler__I
8033ea80   ti_sysbios_knl_Semaphore_post__E
8033ecc0   xdc_runtime_LoggerBuf_write8__F
8033f120   ICMPv6RecvNA
8033f560   IPv6RxPacket
8033f780   RawEthSockNew
8033f9f8   SPI_Interrupt_Handler
8033fa80   SPI_ISR
8033fab0   SPI_Interrupts_Init
80340000   dhcpVerifyMessage
80340220   fputc
80340660   ti_sysbios_family_c64p_Hwi_reconfig__E
80340880   ti_sysbios_knl_Swi_run__I
80340aa0   ti_sysbios_knl_Task_schedule__I
80340cc0   ti_sysbios_knl_Task_startup__E
80340ee0   IPv6ParseFragHdr
803410e0   LLI6New
803414e0   Qmss_programAccumulator
803416e0   RTCReport
803418e0   Raw6Output
80341ce0   ti_sysbios_family_c64p_Hwi_dispatchAlways
80341ee0   accept
803422e0   cppi_internal_heap_add
803426e0   setvbuf
80342ac0   Rt6Modify
80342e80   TcpGenPacket
80343240   dhcpSocketOpen
80343420   sendto
80343600   ti_sysbios_knl_Task_postInit__I
803437e0   ti_sysbios_timers_timer64_Timer_getFreq__E
803439c0   CfgExecute
80343b80   Cppi_channelClose
80343d40   Cppi_initCfg
80343f00   IPGetRoute
80344280   LLIGenArpPacket
803447c0   TcpTimeoutRexmt
80344980   _LLITimeoutCheck
80344ec0   fdClose
80345080   recvncfrom
80345240   ti_sysbios_knl_Task_checkStacks__E
80345400   ti_sysbios_timers_timer64_Timer_setPeriodMicroSecs__E
803455c0   Bind6Msg
80345760   CfgRemoveEntry
80345900   HOSTrename
80345c40   IPv6FragMsg
80345f80   NC_NetStart
80346120   NodeTreeFree
803462c0   Pa_downloadImage
80346460   Raw6Input
803467a0   SockCreatePacket
80346ae0   TCP6TimeoutRexmt
80346c80   __c6xabi_divul
80346e20   dhcpBuildOptions
80346fc0   getpeername
80347300   ti_sysbios_family_c66_tci66xx_CpIntc_dispatch__F
803474a0   ti_sysbios_gates_GateMutex_enter__E
80347640   ti_sysbios_timers_timer64_Timer_start__E
803477e0   xdc_runtime_LoggerBuf_write4__F
80347980   Bind6GetGlobalAddress
80347b00   IGMPMsg
80347c80   NIMURegister
80348400   bind
80348580   dhcpBuildRequest
80348700   llEnter
80348a00   ti_sysbios_family_c64p_Exception_dispatch__E
80348b80   ti_sysbios_heaps_HeapBuf_Module_startup__F
80348d00   ti_sysbios_heaps_HeapMem_Instance_init__F
80348e80   ti_sysbios_knl_Swi_schedule__I
80349000   ti_sysbios_knl_Task_unblockI__E
80349180   xdc_runtime_Text_putSite__F
80349300   CfgGetEntry
80349460   CfgGetNextEntry
803495c0   DbgPrintf
803499e0   PBM_free
80349ca0   PipeSend
80349e00   RawOutput
8034a0c0   RtWalkNext
8034a380   Sock6Check
8034a4e0   Sock6CreatePacket
8034a640   Sock6PcbConnect
8034a7a0   SockCheck
8034a900   SockPcbConnect
8034abc0   TCP6TimeoutKeep
8034ad20   TcpTimeoutKeep
8034ae80   authInit
8034b2a0   setsockopt
8034b400   telnetClientProcess
8034b560   Bind6DADCheck
8034b6a0   Bind6Free
8034b7e0   CSL_chipReadReg
8034b920   ExecOpen
8034ba60   ICMPSendRtAdv
8034bba0   IGMPJoin
8034bce0   IPv6DisplayIPAddress
8034bf60   LLINew
8034c0a0   NodeFind
8034c1e0   NodeWalk
8034c320   PBM_alloc
8034c5a0   SB6New
8034c820   Sock6Accept
8034c960   Sock6Listen
8034caa0   SockAccept
8034cbe0   SockListen
8034cd20   SockPcbCtlError
8034ce60   _auto_init_elf
8034d220   dhcpDecodeType
8034d4a0   httpAuthenticationReq
8034d5e0   mmCopy
8034d720   recv
8034d860   send
8034d9a0   ti_sysbios_family_c64p_Hwi_Module_startup__F
8034dae0   ti_sysbios_family_c66_Cache_Module_startup__F
8034dc20   ti_sysbios_knl_Clock_Instance_finalize__F
8034dd60   ti_sysbios_knl_Semaphore_Instance_init__F
8034dea0   ti_sysbios_knl_Swi_post__E
8034dfe0   ti_sysbios_knl_Task_blockI__E
8034e240   BindFree
8034e360   CfgFree
8034e480   DaemonFree
8034e480   TelnetClose
8034e480   httpClose
8034e5a0   FdWaitEvent
8034e6c0   IGMPLeaveHostGroup
8034e7e0   IPMsg
8034eb40   IPv6Init
8034ec60   IsICMPv6ErrorPkt
8034ed80   MD5Update
8034eea0   MLDJoinGroup
8034efc0   NC_SystemOpen
8034f0e0   NIMUAddEthernetHeader
8034f200   Qmss_disableAccumulator
8034f320   RawEthRxPacket
8034f440   RawEthTxPacket
8034f560   SBNew
8034f8c0   Sock6Disconnect
8034f9e0   Sock6Shutdown
8034fc20   SockShutdown
8034fd40   TCP6PrAttach
8034fe60   TcpPrAttach
8034ff80   TelnetOpen
803500a0   _RtNodeInsert
803501c0   _closefile
80350400   _mmInit
80350640   fdOpenSession
80350760   fseek
80350880   httpOpen
803509a0   httpSendStatusLine
80350ac0   lcpOpen
80350be0   lcpReject
80350e20   socket
80350f40   xdc_runtime_LoggerBuf_setFilterLevel__F
80351060   xdc_runtime_Text_putLab__F
80351180   CfgNew
80351280   CfgSetExecuteOrder
80351380   HOSTlseek
80351580   IPv6GetSubnetMaskFromBits
80351780   RTCMsg
80351880   RawEthSockCheck
80351980   RtRedirect
80351a80   SockValidateRoute
80351c80   TCP6PrInherit
80351d80   TCP6XmitTimer
80351e80   TcpPrInherit
80351f80   TcpXmitTimer
80352080   _RtNodeRemove
80352180   _wrt_ok
80352280   fdint_unlockfd
80352480   listen
80352580   mmFree
80352780   ti_sysbios_family_c64p_EventCombiner_dispatch__F
80352880   ti_sysbios_knl_Clock_startI__E
80352980   ti_sysbios_knl_Swi_restoreHwi__E
80352b80   xdc_runtime_Core_deleteObject__I
80352c80   xdc_runtime_LoggerBuf_getFilterLevel__F
80352d80   xdc_runtime_Startup_exec__F
80352e80   xdc_runtime_Text_putMod__F
80352f80   xdc_runtime_Text_visitRope2__I
80353080   Bind6GetLinkLocalAddress
80353160   CfgGetEntryCnt
80353240   DHCPClose
80353320   HOSTopen
80353400   IGMPLeave
803535c0   LLI6Msg
803536a0   LLI6Update
80353a20   NodeDeRef
80353be0   NodeTreeNew
80353cc0   PBMQ_enq
80353da0   PBM_copy
80353e80   RawEthSockNotify
80353f60   RawEthSockPcbAttach
80354040   RawEthSockSend
80354120   Route6Msg
80354200   RtDeRef
803542e0   RtRemove
803543c0   SBReadNC
803544a0   SBSetMax
80354580   Sock6SpawnAbort
80354660   Sock6ValidateRoute
80354740   SockDisconnect
80354820   SockSpawnAbort
80354900   TCP6PrDetach
803549e0   TCP6PrDisconnect
80354ac0   TCP6ValidateMetrics
80354ba0   TcpPrDetach
80354c80   TcpPrDisconnect
80354d60   TcpValidateMetrics
80354f20   UdpChecksum
80355000   VLANDeinit
803550e0   VLANReceivePacket
803552a0   _LLIExpListInsert
80355380   _RtExpListInsert
80355460   __c6xabi_divi
80355460   __divi
80355620   atoi
80355700   close
803557e0   __TI_zero_init
803559a0   fdint_lockfd
80355a80   fflush
80355c40   llExit
80355d20   ltoa
80355e00   memset
80355ee0   mmBulkAlloc
80355fc0   pppFree
803560a0   printf
80356180   ti_sysbios_family_c64p_Hwi_Instance_finalize__F
80356260   ti_sysbios_family_c64p_Hwi_Instance_init__F
80356340   ti_sysbios_family_c64p_Hwi_Object__create__S
80356420   ti_sysbios_hal_Hwi_Object__create__S
80356500   ti_sysbios_knl_Clock_start__E
803565e0   ti_sysbios_timers_timer64_Timer_startup__E
803566c0   xdc_runtime_Error_print__F
803567a0   xdc_runtime_Memory_alloc__F
80356880   HOSTread
80356940   HOSTunlink
80356a00   HOSTwrite
80356c40   IPv6Layer4ComputeChecksum
80356d00   LLIGetValidTime
80356dc0   LLIMsg
80356f40   MLDLeaveGroup
80357000   NIMUFindByName
803570c0   NS_BootTask
80357240   NtIfIdx2Ip
80357300   Qmss_setEoiVector
803573c0   Rt6FindDefaultRouter
80357480   RtWalkBegin
80357540   SB6Flush
80357600   SB6SetMax
803576c0   SBFlush
80357780   Sock6IntAbort
80357840   Sock6PcbResolveChain
80357900   Sock6PcbRtChange
803579c0   SockIntAbort
80357a80   SockPcbRtChange
80357b40   TCP6Close
80357c00   TCP6TimeoutSackRexmt
80357cc0   TaskGetEnv
80357d80   TcpChecksum
80357e40   TcpClose
80357f00   TcpTimeoutSackRexmt
80358200   __cxa_finalize
803582c0   __c6xabi_divu
803582c0   __divu
80358380   __c6xabi_remi
80358380   __remi
80358440   _doflush
80358500   cppi_list_remove_node
803585c0   dhcpOptionsClear
80358680   efs_fopen
80358740   exit
80358800   httpSendFullResponse
803588c0   mmZeroInit
80358a40   ti_sysbios_BIOS_errorRaiseHook__I
80358b00   ti_sysbios_heaps_HeapMem_getStats__E
80358bc0   ti_sysbios_knl_Clock_logTick__E
80358c80   ti_sysbios_knl_Task_Object__create__S
80358d40   ti_sysbios_timers_timer64_Timer_stop__E
80358e00   dtask_udp_hello
80358ec0   xdc_runtime_LoggerBuf_Instance_init__F
80358f80   xdc_runtime_LoggerBuf_Object__create__S
80359040   xdc_runtime_System_formatNum__I
80359100   CfgEntryDeRef
803591a0   CfgEntryGetData
80359240   CfgGetImmediate
80359420   Cppi_channelEnable
803594c0   FdSignalEvent
80359560   HOSTclose
80359600   IPReasmFree
803596a0   IPReasmTimeout
80359740   IPv6CompareAddress
803597e0   LLIValidateRoute
80359880   MD5Final
80359920   NIMUShutdown
803599c0   NIMUUnregister
80359a60   NtAddNetwork
80359b00   PBM_open
80359ba0   PipeCheck
80359c40   Qmss_queueClose
80359ce0   Qmss_startCfg
80359d80   RouteMsg
80359ec0   SB6Free
80359f60   SBFree
8035a000   SemCreate
8035a0a0   Sock6CleanPcb
8035a140   Sock6GetName
8035a1e0   SockBind
8035a280   SockCleanPcb
8035a320   SockPcbResolveChain
8035a3c0   TCP6Drop
8035a460   TCP6PrCtlError
8035a500   TCP6PrSend
8035a5a0   TCP6PrSendOOB
8035a640   TaskCreate
8035a6e0   TcpDrop
8035a780   TcpPrCtlError
8035a820   TcpPrSend
8035a8c0   TcpPrSendOOB
8035a960   TimerNew
8035aaa0   _LLITimeoutFlush
8035ab40   __c6xabi_remu
8035ab40   __remu
8035abe0   _c_int00
8035ac80   _cleanup
8035af00   ti_sysbios_family_c64p_Hwi_plug__E
8035afa0   authStart
8035b040   cppi_internal_heap_malloc
8035b0e0   cppi_list_cat
8035b180   dhcpBuildDecline
8035b2c0   efs_filesend
8035b360   fdCloseSession
8035b4a0   lcpInit
8035b5e0   llTimerTick
8035b680   lseek
8035b720   memcpy
8035b7c0   mmBulkFree
8035ba40   stricmp
8035bae0   strstr
8035bb80   ti_sysbios_heaps_HeapMem_init__I
8035bc20   write
8035bcc0   xdc_runtime_Assert_raise__I
8035bd60   xdc_runtime_LoggerBuf_Module_startup__F
8035be00   xdc_runtime_LoggerBuf_write8__E
8035bea0   Cppi_setCpdmaLoopback
8035bfa0   ICMPChecksum
8035c0a0   ICMPv6RecvRS
8035c1a0   IPv6GetRoute
8035c220   LLI6Free
8035c320   NC_SystemClose
8035c3a0   NIMUInit
8035c420   PBMQ_deq
8035c520   Pa_getBufferReq
8035c5a0   PipeClose
8035c620   Qmss_getMemRegQueueHandle
8035c6a0   Qmss_queueOpen
8035c720   RawEthSockClose
8035c7a0   RawEthSockPcbDetach
8035c820   Rt6Update
8035c8a0   RtSetFailure
8035c920   RtSetTimeout
8035c9a0   Sock6Bind
8035ca20   Sock6PcbCleanup
8035caa0   SockGetName
8035cb20   SockPcbCleanup
8035cba0   SockPcbDetach
8035cc20   TCP6PrListen
8035cca0   TaskSetEnv
8035cd20   TcpPrListen
8035cda0   TimerHSTick
8035cf20   _LLIExpListRemove
8035d020   _RtExpListRemove
8035d0a0   __c6xabi_fixfu
8035d120   __c6xabi_llshl
8035d1a0   ti_sysbios_family_c62_TaskSupport_swap__E
8035d220   cppi_internal_heap_cache_begin
8035d2a0   cppi_list_remove
8035d320   dhcpSocketClose
8035d3a0   efs_fclose
8035d4a0   fdint_waitevent
8035d520   httpSendEntityLength
8035d5a0   httpSendErrorResponse
8035d620   llTimerGetTime
8035d6a0   malloc
8035d7a0   readmsg
8035d8a0   strncpy
8035d9a0   evmI2CInit
8035da20   ti_sysbios_family_c62_TaskSupport_start__E
8035daa0   ti_sysbios_family_c64p_Exception_Module_startup__F
8035db20   ti_sysbios_family_c64p_Hwi_eventMap__E
8035dba0   ti_sysbios_family_c66_Cache_invL1pAll__E
8035dc20   ti_sysbios_family_c66_tci66xx_CpIntc_getEventId__F
8035dca0   ti_sysbios_family_c66_tci66xx_CpIntc_mapSysIntToHostInt__F
8035dd20   ti_sysbios_gates_GateHwi_Object__create__S
8035dda0   ti_sysbios_gates_GateMutex_Object__create__S
8035de20   ti_sysbios_hal_Hwi_checkStack
8035dea0   ti_sysbios_heaps_HeapMem_Object__create__S
8035df20   ti_sysbios_knl_Clock_Module_startup__F
8035dfa0   ti_sysbios_knl_Clock_Object__create__S
8035e020   ti_sysbios_knl_Clock_getTicks__E
8035e0a0   ti_sysbios_knl_Idle_loop__E
8035e120   ti_sysbios_knl_Queue_Object__create__S
8035e1a0   ti_sysbios_knl_Semaphore_Object__create__S
8035e220   ti_sysbios_knl_Semaphore_pendTimeout__I
8035e2a0   ti_sysbios_knl_Swi_startup__E
8035e320   ti_sysbios_knl_Task_deleteTerminatedTasksFunc__I
8035e3a0   ti_sysbios_knl_Task_restore__E
8035e420   ti_sysbios_timers_timer64_Timer_getCount__E
8035e420   ti_sysbios_timers_timer64_Timer_getExpiredCounts__E
8035e4a0   ti_sysbios_timers_timer64_Timer_getPeriod__E
8035e520   remove
8035e520   unlink
8035e5a0   xdc_runtime_Core_assignLabel__I
8035e620   xdc_runtime_Core_assignParams__I
8035e6a0   xdc_runtime_LoggerBuf_filterOutEvent__I
8035e720   xdc_runtime_System_atexit__F
8035e7a0   xdc_runtime_System_rtsExit__I
8035e820   xdc_runtime_Text_printVisFxn__I
8035e8a0   xdc_runtime_Text_xprintf__I
8035e920   ADS1298_config_init
8035e980   Bind6FindByIF
8035e9e0   Bind6IF2IPHost
8035ea40   BindFindByHost
8035eaa0   BindFindByIF
8035eb00   BindFindByNet
8035eb60   BindGetIFByDBCast
8035ebc0   BindIF2IPHost
8035ec20   CfgEntryInfo
8035ec80   CfgSetService
8035eda0   IGMPTestGroup
8035ee00   IPChecksum
8035ee60   LLIFree
8035eec0   NIMUAddHeader
8035ef20   NIMUCreatePacket
8035ef80   NIMUFindByIndex
8035efe0   NIMUPacketService
8035f040   NIMUPacketServiceCheck
8035f0a0   NIMUSendPacket
8035f100   NS_PreBoot
8035f1c0   RTCAddHook
8035f220   RTCRemoveHook
8035f280   RawEthSockPcbCleanup
8035f2e0   RawEthSockPcbFind
8035f340   Rt6GetNetworkAddr
8035f3a0   RtWalkEnd
8035f460   Sock6PcbDetach
8035f4c0   Sock6PrCtlError
8035f520   Sock6PrDetach
8035f580   SockPrCtlError
8035f5e0   SockPrDetach
8035f640   TCP6PrConnect
8035f6a0   TCP6SetPersist
8035f700   TCP6TimeoutPersist
8035f760   TcpPrConnect
8035f7c0   TcpSetPersist
8035f820   TcpTimeoutPersist
8035f940   VLANInit
8035fa00   __c6xabi_frcmpyd_div
8035fa60   __c6xabi_llshru
8035fac0   _subcull
8035fb20   cppi_list_add
8035fb80   cppi_list_cache_invalidate
8035fbe0   dhcpBuildDiscover
8035fc40   dhcpPacketReceive
8035fca0   dhcpPacketSend
8035fd00   fdSelectAbort
8035fd60   fdint_clearevent
8035fdc0   fdint_getfdt
8035fe20   fdint_setevent
8035fe80   fdsetTestEntry
8035fee0   httpSendClientStr
8035ff40   ipcpInit
8035ffa0   ipcpStart
80360000   lcpClose
80360060   list_cat
803600c0   list_remove_node
80360120   memccpy
803602a0   pppoeInput
80360300   recvncfree
80360360   sprintf
80360420   strcpy
80360480   ti_ndk_config_Global_stackThread
803604e0   ti_sysbios_BIOS_exitFunc__I
80360540   ti_sysbios_BIOS_registerRTSLock__I
803605a0   ti_sysbios_family_c64p_EventCombiner_Module_startup__F
80360600   ti_sysbios_family_c64p_EventCombiner_dispatchPlug__F
80360660   ti_sysbios_family_c64p_EventCombiner_unused__F
803606c0   ti_sysbios_family_c64p_Hwi_restoreInterrupt__E
80360720   ti_sysbios_family_c66_tci66xx_CpIntc_unused__F
80360780   ti_sysbios_gates_GateMutex_Instance_init__F
803607e0   ti_sysbios_hal_Hwi_Instance_init__F
80360840   ti_sysbios_hal_Hwi_initStack
803608a0   ti_sysbios_heaps_HeapBuf_Object__get__S
80360900   ti_sysbios_heaps_HeapMem_Object__get__S
80360960   ti_sysbios_knl_Clock_doTick__I
803609c0   ti_sysbios_knl_Queue_Object__get__S
80360a20   ti_sysbios_knl_Swi_Module_startup__F
80360a80   ti_sysbios_knl_Swi_Object__get__S
80360ae0   ti_sysbios_knl_Task_Object__get__S
80360b40   ti_sysbios_knl_Task_allBlockedFunction__I
80360ba0   ti_sysbios_knl_Task_enter__I
80360c00   vsprintf
80360c60   writemsg
80360cb8   C$$IO$$
80360cc0   xdc_runtime_LoggerBuf_Object__get__S
80360d20   xdc_runtime_Memory_calloc__F
80360d80   xdc_runtime_SysStd_abort__F
80360de0   xdc_runtime_System_aprintf_va__F
80360de0   xdc_runtime_System_avprintf__F
80360e40   xdc_runtime_System_printf_va__F
80360e40   xdc_runtime_System_vprintf__F
80360ea0   xdc_runtime_Text_cordText__F
80360f00   Bind6FindByHost
80360f40   Bind6FindByNet
80360f80   BindGetIP
80360fc0   ExecClose
80361000   ExecTimer
80361040   IPv6IsLinkLocal
80361080   IPv6IsMulticast
803610c0   LLI6IsValid
80361100   MD5Init
80361140   MLDTestGroup
80361180   NC_BootComplete
803611c0   NDK_hookCreate
80361200   NtRemoveNetwork
80361240   Qmss_ackInterrupt
80361280   Qmss_getMemRegDescSize
803612c0   RawEthSockPcbInit
80361340   Rt6IsDefaultRoute
80361380   Sock6PcbAttach
803613c0   Sock6SetOOBMark
80361400   SockPcbAttach
80361440   SockSetOOBMark
80361480   TCP6TimeoutRemove
803614c0   TCP6TimeoutWait2
80361500   TaskDestroy
80361540   TcpTimeoutRemove
80361580   TcpTimeoutWait2
803615c0   __c6xabi_isinf
80361640   __c6xabi_strasgi_64plus
80361640   __strasgi_64plus
80361680   _args_main
803616c0   _llTimerInit
80361780   ti_sysbios_family_c62_TaskSupport_buildTaskStack
803617c0   ti_sysbios_family_xxx_Hwi_switchToIsrStack
80361800   efs_loadfunction
80361840   fdint_freefdt
80361880   free
803618c0   inet_addr
80361900   list_add
80361940   list_remove
803619c0   puts
80361a40   strlen
80361a80   ti_sysbios_BIOS_startFunc__I
80361ac0   ti_sysbios_BIOS_start__E
80361b00   ti_sysbios_family_c64p_EventCombiner_disableEvent__F
80361b40   ti_sysbios_family_c64p_EventCombiner_dispatchPlug__E
80361b80   ti_sysbios_family_c64p_EventCombiner_enableEvent__F
80361bc0   ti_sysbios_family_c64p_Hwi_Module__startupDone__F
80361c00   ti_sysbios_family_c64p_Hwi_Object__delete__S
80361c40   ti_sysbios_family_c64p_Hwi_disableInterrupt__E
80361c80   ti_sysbios_family_c64p_Hwi_enableInterrupt__E
80361cc0   ti_sysbios_family_c66_tci66xx_CpIntc_disableAllHostInts__F
80361d00   ti_sysbios_family_c66_tci66xx_CpIntc_dispatchPlug__E
80361d40   ti_sysbios_family_c66_tci66xx_CpIntc_dispatchPlug__F
80361d80   ti_sysbios_family_c66_tci66xx_CpIntc_enableAllHostInts__F
80361dc0   ti_sysbios_gates_GateHwi_Handle__label__S
80361e00   ti_sysbios_gates_GateHwi_Object__delete__S
80361e40   ti_sysbios_gates_GateMutex_Handle__label__S
80361e80   ti_sysbios_gates_GateMutex_Instance_finalize__F
80361ec0   ti_sysbios_gates_GateMutex_Object__delete__S
80361f00   ti_sysbios_gates_GateMutex_leave__E
80361f40   ti_sysbios_hal_Cache_CacheProxy_wbInv__E
80361f40   ti_sysbios_hal_Cache_wbInv__E
80361f80   ti_sysbios_hal_Hwi_HwiProxy_Object__create__S
80361fc0   ti_sysbios_hal_Hwi_Instance_finalize__F
80362000   ti_sysbios_hal_Hwi_Params__init__S
80362040   ti_sysbios_hal_Timer_Module__startupDone__F
80362080   ti_sysbios_heaps_HeapMem_Handle__label__S
803620c0   ti_sysbios_heaps_HeapMem_Object__delete__S
80362100   ti_sysbios_knl_Clock_Object__destruct__S
80362140   ti_sysbios_knl_Clock_Params__init__S
803621c0   ti_sysbios_knl_Queue_Object__destruct__S
80362200   ti_sysbios_knl_Semaphore_Instance_finalize__F
80362240   ti_sysbios_knl_Semaphore_Object__delete__S
80362280   ti_sysbios_knl_Semaphore_Object__destruct__S
803622c0   ti_sysbios_knl_Task_Object__delete__S
80362300   ti_sysbios_knl_Task_Object__first__S
80362340   ti_sysbios_knl_Task_Object__next__S
80362380   ti_sysbios_knl_Task_Params__init__S
803623c0   ti_sysbios_knl_Task_sleepTimeout__I
80362400   ti_sysbios_timers_timer64_Timer_Module__startupDone__F
80362440   xdc_runtime_Error_check__F
80362480   xdc_runtime_Error_init__F
803624c0   xdc_runtime_Error_raiseX__E
80362500   xdc_runtime_Gate_leaveSystem__F
803625c0   xdc_runtime_LoggerBuf_Handle__label__S
80362600   xdc_runtime_LoggerBuf_Instance_finalize__F
80362640   xdc_runtime_LoggerBuf_Object__delete__S
80362680   xdc_runtime_LoggerBuf_setFilterLevel__E
803626c0   xdc_runtime_LoggerBuf_write0__F
80362700   xdc_runtime_LoggerBuf_write1__E
80362740   xdc_runtime_LoggerBuf_write1__F
80362780   xdc_runtime_LoggerBuf_write2__E
803627c0   xdc_runtime_LoggerBuf_write2__F
80362800   xdc_runtime_LoggerBuf_write4__E
80362840   xdc_runtime_Memory_free__F
80362880   xdc_runtime_Registry_findById__F
803628c0   xdc_runtime_Startup_exec__I
80362900   xdc_runtime_System_abort__F
80362940   xdc_runtime_System_aprintf__E
80362980   xdc_runtime_System_printf__E
803629c0   xdc_runtime_Text_ropeText__F
80362a00   xdc_runtime_Text_visitRope__I
80362a40   Bind6GetInterfaceHandle
80362a60   Bind6GetLifetime
80362a80   Bind6SetLifetime
80362aa0   BindGetFirst
80362ac0   BindGetIF
80362ae0   BindGetNext
80362b00   BindIFNet2IPHost
80362b20   BindIPHost2IF
80362b40   CSL_GPIO_open
80362b60   CfgSetDefault
80362b80   Cppi_init
80362ba0   ExecHRef
80362bc0   ExecLowResource
80362be0   IPRtChange
80362c00   LED_TOGGLE
80362c20   LLI6GetNetDevice
80362c40   LLI6IncRefCount
80362c60   LLI6IsDead
80362c80   LLI6IsRouter
80362ca0   LLI6SetIncomplete
80362cc0   NC_IPUpdate
80362ce0   NC_NetStop
80362d00   NDK_hookInit
80362d20   NIMUGetRsvdSizeInfo
80362d40   NIMUSetRsvdSizeInfo
80362d60   NatMsg
80362d80   NodeGetRt
80362da0   NodeSetRt
80362dc0   NotifyLowResource
80362de0   OEMCacheClean
80362e00   OEMSysCritOff
80362e20   OEMSysCritOn
80362e40   PBM_close
80362e60   Qmss_getQueueNumber
80362e80   Qmss_start
80362ea0   RawEthSockPrAttach
80362ec0   RawEthSockPrDetach
80362ee0   Rt6GetIF
80362f00   Rt6GetLLI
80362f20   Rt6GetMTU
80362f40   Rt6IncRefCount
80362f60   Rt6IsLocalRoute
80362f80   SemDelete
80362fa0   SemPend
80362fc0   SemPost
80362fe0   SemReset
80363000   Sock6PrAttach
80363020   Sock6SetOOBData
80363040   SockPrAttach
80363060   SockSetOOBData
80363080   TCP6PrRecv
803630a0   TCP6TimeoutAdd
803630c0   TaskBlock
803630e0   TaskSelf
80363100   TaskSetPri
80363120   TcpPrRecv
80363140   TcpTimeoutAdd
80363160   TimerFree
80363180   _TaskInit
803631a0   _TaskShutdown
803631c0   __c6xabi_negll
803631e0   __cxa_atexit
80363200   __cxa_ia64_exit
80363220   __xdc__init
80363240   _llSerialInit
80363260   _llSerialServiceCheck
80363280   _llSerialShutdown
803632a0   _llTimerShutdown
803632c0   _llUserLedInit
803632e0   _llUserLedShutdown
80363300   _nop
803633a0   _register_lock
803633c0   _register_unlock
803633e0   ti_sysbios_family_c62_TaskSupport_glue
80363400   ti_sysbios_family_xxx_Hwi_switchToTaskStack
80363420   C$$EXIT
80363420   abort
80363440   atexit
80363460   cppi_internal_heap_free
80363480   cppi_list_get_head
803634a0   cppi_list_get_next
803634c0   __TI_decompress_none
803634e0   __TI_decompress_rle24
80363500   efs_getfilesize
80363520   fdint_signaltimeout
80363540   list_get_head
80363560   list_get_next
80363580   llSerialService
803635a0   llTimerGetStartTime
80363620   putc
80363640   putchar
80363660   ti_sysbios_BIOS_RtsGateProxy_enter__E
80363680   ti_sysbios_BIOS_RtsGateProxy_leave__E
803636a0   ti_sysbios_BIOS_setThreadType__E
803636c0   ti_sysbios_family_c62_TaskSupport_Module__startupDone__S
803636e0   ti_sysbios_family_c62_TaskSupport_checkStack__E
80363700   ti_sysbios_family_c62_TaskSupport_getStackAlignment__E
80363720   ti_sysbios_family_c64p_EventCombiner_Module_startup__E
80363740   ti_sysbios_family_c64p_EventCombiner_disableEvent__E
80363760   ti_sysbios_family_c64p_EventCombiner_dispatch__E
80363780   ti_sysbios_family_c64p_EventCombiner_enableEvent__E
803637a0   ti_sysbios_family_c64p_EventCombiner_unused__E
803637c0   ti_sysbios_family_c64p_Exception_Module_startup__E
803637e0   ti_sysbios_family_c64p_Hwi_Module__startupDone__S
80363800   ti_sysbios_family_c64p_Hwi_Module_startup__E
80363820   ti_sysbios_family_c64p_Hwi_clearInterrupt__E
80363840   ti_sysbios_family_c64p_Hwi_startup__E
80363860   ti_sysbios_family_c64p_Hwi_switchFromBootStack__E
80363880   ti_sysbios_family_c64p_Hwi_unPluggedInterrupt__I
803638a0   ti_sysbios_family_c64p_TimestampProvider_Module_startup__E
803638c0   ti_sysbios_family_c64p_TimestampProvider_Module_startup__F
803638e0   ti_sysbios_family_c64p_TimestampProvider_get64__E
80363900   ti_sysbios_family_c64p_tci6488_TimerSupport_enable__E
80363920   ti_sysbios_family_c66_Cache_Module_startup__E
80363940   ti_sysbios_family_c66_Cache_wbInv__E
80363960   ti_sysbios_family_c66_tci66xx_CpIntc_Module_startup__E
80363980   ti_sysbios_family_c66_tci66xx_CpIntc_clearSysInt__E
803639a0   ti_sysbios_family_c66_tci66xx_CpIntc_clearSysInt__F
803639c0   ti_sysbios_family_c66_tci66xx_CpIntc_disableAllHostInts__E
803639e0   ti_sysbios_family_c66_tci66xx_CpIntc_disableHostInt__E
80363a00   ti_sysbios_family_c66_tci66xx_CpIntc_disableHostInt__F
80363a20   ti_sysbios_family_c66_tci66xx_CpIntc_dispatch__E
80363a40   ti_sysbios_family_c66_tci66xx_CpIntc_enableAllHostInts__E
80363a60   ti_sysbios_family_c66_tci66xx_CpIntc_enableHostInt__E
80363a80   ti_sysbios_family_c66_tci66xx_CpIntc_enableHostInt__F
80363aa0   ti_sysbios_family_c66_tci66xx_CpIntc_enableSysInt__E
80363ac0   ti_sysbios_family_c66_tci66xx_CpIntc_enableSysInt__F
80363ae0   ti_sysbios_family_c66_tci66xx_CpIntc_getEventId__E
80363b00   ti_sysbios_family_c66_tci66xx_CpIntc_mapSysIntToHostInt__E
80363b20   ti_sysbios_family_c66_tci66xx_CpIntc_unused__E
80363b40   ti_sysbios_gates_GateHwi_Instance_init__F
80363b60   ti_sysbios_gates_GateHwi_enter__E
80363b80   ti_sysbios_gates_GateHwi_leave__E
80363ba0   ti_sysbios_gates_GateHwi_query__E
80363bc0   ti_sysbios_gates_GateHwi_query__F
80363be0   ti_sysbios_gates_GateMutex_query__E
80363c00   ti_sysbios_gates_GateMutex_query__F
80363c20   ti_sysbios_hal_Hwi_HwiProxy_Module__startupDone__S
80363c40   ti_sysbios_hal_Hwi_HwiProxy_Object__delete__S
80363c60   ti_sysbios_hal_Hwi_HwiProxy_clearInterrupt__E
80363c60   ti_sysbios_hal_Hwi_clearInterrupt__E
80363c80   ti_sysbios_hal_Hwi_HwiProxy_disableInterrupt__E
80363c80   ti_sysbios_hal_Hwi_disableInterrupt__E
80363ca0   ti_sysbios_hal_Hwi_HwiProxy_enableInterrupt__E
80363ca0   ti_sysbios_hal_Hwi_enableInterrupt__E
80363cc0   ti_sysbios_hal_Hwi_HwiProxy_startup__E
80363cc0   ti_sysbios_hal_Hwi_startup__E
80363ce0   ti_sysbios_hal_Hwi_HwiProxy_switchFromBootStack__E
80363ce0   ti_sysbios_hal_Hwi_switchFromBootStack__E
80363d00   ti_sysbios_hal_Hwi_Module_startup__E
80363d20   ti_sysbios_hal_Hwi_Module_startup__F
80363d40   ti_sysbios_hal_Timer_Module__startupDone__S
80363d60   ti_sysbios_hal_Timer_Module_startup__E
80363d80   ti_sysbios_hal_Timer_Module_startup__F
80363da0   ti_sysbios_hal_Timer_TimerProxy_Module__startupDone__S
80363dc0   ti_sysbios_hal_Timer_TimerProxy_getExpiredCounts__E
80363de0   ti_sysbios_hal_Timer_TimerProxy_getPeriod__E
80363e00   ti_sysbios_hal_Timer_TimerProxy_setNextTick__E
80363e20   ti_sysbios_hal_Timer_TimerProxy_startup__E
80363e20   ti_sysbios_hal_Timer_startup__E
80363e40   ti_sysbios_heaps_HeapBuf_Module_startup__E
80363e60   ti_sysbios_heaps_HeapMem_Module_GateProxy_enter__E
80363e80   ti_sysbios_heaps_HeapMem_Module_GateProxy_leave__E
80363ea0   ti_sysbios_heaps_HeapMem_Module_GateProxy_query__E
80363ec0   ti_sysbios_heaps_HeapMem_isBlocking__E
80363f00   ti_sysbios_knl_Clock_Module_startup__E
80363f40   ti_sysbios_knl_Queue_Instance_init__F
80363f60   ti_sysbios_knl_Queue_empty__E
80363f80   ti_sysbios_knl_Semaphore_reset__E
80363fa0   ti_sysbios_knl_Swi_Module_startup__E
80363fc0   ti_sysbios_knl_Swi_disable__E
80363fe0   ti_sysbios_knl_Task_Module_startup__E
80364000   ti_sysbios_knl_Task_SupportProxy_Module__startupDone__S
80364020   ti_sysbios_knl_Task_SupportProxy_checkStack__E
80364040   ti_sysbios_knl_Task_SupportProxy_getStackAlignment__E
80364060   ti_sysbios_knl_Task_SupportProxy_start__E
80364080   ti_sysbios_knl_Task_SupportProxy_swap__E
803640a0   ti_sysbios_knl_Task_disable__E
803640c0   ti_sysbios_knl_Task_getHookContext__E
803640e0   ti_sysbios_knl_Task_self__E
80364100   ti_sysbios_knl_Task_setHookContext__E
80364120   ti_sysbios_timers_timer64_Timer_Module__startupDone__S
80364140   ti_sysbios_timers_timer64_Timer_Module_startup__E
80364160   ti_sysbios_timers_timer64_Timer_TimerSupportProxy_enable__E
80364180   ti_sysbios_timers_timer64_Timer_setNextTick__E
803641c0   xdc_runtime_Error_check__E
803641e0   xdc_runtime_Error_getMsg__E
80364200   xdc_runtime_Error_getMsg__F
80364220   xdc_runtime_Error_init__E
80364240   xdc_runtime_Error_print__E
80364260   xdc_runtime_Gate_enterSystem__E
80364280   xdc_runtime_Gate_enterSystem__F
803642a0   xdc_runtime_Gate_leaveSystem__E
803642c0   xdc_runtime_LoggerBuf_Module_GateProxy_enter__E
803642e0   xdc_runtime_LoggerBuf_Module_GateProxy_leave__E
80364300   xdc_runtime_LoggerBuf_Module_startup__E
80364320   xdc_runtime_LoggerBuf_TimestampProxy_get64__E
80364340   xdc_runtime_LoggerBuf_disable__E
80364360   xdc_runtime_LoggerBuf_disable__F
80364380   xdc_runtime_LoggerBuf_enable__E
803643a0   xdc_runtime_LoggerBuf_enable__F
803643c0   xdc_runtime_LoggerBuf_getFilterLevel__E
803643e0   xdc_runtime_LoggerBuf_write0__E
80364400   xdc_runtime_Memory_HeapProxy_alloc__E
80364420   xdc_runtime_Memory_HeapProxy_free__E
80364440   xdc_runtime_Memory_alloc__E
80364460   xdc_runtime_Memory_calloc__E
80364480   xdc_runtime_Memory_free__E
803644a0   xdc_runtime_Registry_findById__E
803644c0   xdc_runtime_Startup_exec__E
803644e0   xdc_runtime_Startup_reset__I
80364500   xdc_runtime_SysStd_abort__E
80364520   xdc_runtime_SysStd_exit__E
80364540   xdc_runtime_SysStd_exit__F
80364560   xdc_runtime_SysStd_putch__E
80364580   xdc_runtime_SysStd_putch__F
803645a0   xdc_runtime_SysStd_ready__E
803645c0   xdc_runtime_SysStd_ready__F
803645e0   xdc_runtime_System_Module_GateProxy_enter__E
80364600   xdc_runtime_System_Module_GateProxy_leave__E
80364620   xdc_runtime_System_Module_startup__E
80364640   xdc_runtime_System_Module_startup__F
80364660   xdc_runtime_System_SupportProxy_abort__E
80364680   xdc_runtime_System_SupportProxy_exit__E
803646a0   xdc_runtime_System_SupportProxy_putch__E
803646c0   xdc_runtime_System_SupportProxy_ready__E
803646e0   xdc_runtime_System_abort__E
80364700   xdc_runtime_System_atexit__E
80364720   xdc_runtime_System_exit__E
80364740   xdc_runtime_System_exit__F
80364760   xdc_runtime_System_lastFxn__I
80364780   xdc_runtime_System_vsprintf__E
803647a0   xdc_runtime_System_sprintf_va__F
803647a0   xdc_runtime_System_vsprintf__F
803647c0   xdc_runtime_Text_cordText__E
803647e0   xdc_runtime_Text_putLab__E
80364800   xdc_runtime_Text_putSite__E
80364820   xdc_runtime_Text_ropeText__E
80364840   ti_ndk_config_Global_pit
80364a00   ti_ndk_config_Global_pitBuffer
80370a00   ti_sysbios_knl_Task_Instance_State_0_hookEnv__A
80370a08   ti_sysbios_knl_Task_Instance_State_1_hookEnv__A
80370a10   ti_sysbios_knl_Task_Instance_State_2_hookEnv__A
80370a18   ti_sysbios_knl_Task_Instance_State_3_hookEnv__A
80370a20   xdc_runtime_LoggerBuf_Instance_State_0_entryArr__A
80371880   _tmpnams
803719c0   qmssLObj
80371cc8   IPV6_LINKLOCALMASK
80371cd8   IPV6_MULTICASTMASK
80371ce8   IPV6_UNSPECIFIED_ADDRESS
80371cf8   IPV6_LOOPBACK_ADDRESS
80371d08   IPV6_HOST_MASK
80371d18   IPV6_ALL_NODES_ADDRESS
80371d28   IPV6_ALL_ROUTER_ADDRESS
80371d38   ipv6mcb
80371d90   tcps
80371e48   tpseudo
80371e54   tcp6_stats
80371f0c   raweth_pcb
80371f10   _ICMPIn
80371f60   _ICMPOut
80371fac   gPlatformInfo
80372040   BlockMax
80372060   BlockCount
80372080   PageMax
803720a0   PageCount
803720bc   exception_record
80372128   ips
80372190   nimu_mcb
803721f8   gI2cBlock
8037223c   udps
80372260   upseudo
80372270   nimuGlobalConfigParams
80372280   coreKey
803722a0   vlan_mcb
803722c8   udp6_stats
803722f0   gCppiCfg
80372310   ti_ndk_config_Global_Id2Size
8037232c   icmp6stats
80372344   PBMQ_free
80372368   mem_prot_key
80372378   stkEvent
80372388   raws
80372398   raw6_stats
803723a8   raweths
803723c0   c1
80375bf0   m
803774a0   xdc_runtime_Text_charTab__A
80378728   c2
8037a088   acc48_le
8037aae8   ti_sysbios_family_c66_Cache_marvalues__C
8037bbec   ti_sysbios_BIOS_Module__diagsEnabled__C
8037bbf0   _ctypes_
8037bcf2   ti_sysbios_BIOS_Module__id__C
8037bcf4   ti_sysbios_BIOS_Module__diagsIncluded__C
8037bcf8   xdc_runtime_Text_nodeTab__A
8037c4ee   ti_sysbios_family_c64p_EventCombiner_Module__id__C
8037c4f0   ti_sysbios_family_c66_tci66xx_CpIntc_sysIntToHostInt__A
8037c6be   ti_sysbios_family_c64p_Exception_Module__id__C
8037c860   pap_pdsp_const_reg_map
8037c9ca   ti_sysbios_family_c64p_Hwi_Module__id__C
8037cae0   Code2Err
8037ccd2   ti_sysbios_family_c64p_Hwi_Module__loggerDefined__C
8037ccd4   xdc_runtime_LoggerBuf_Module__FXNS__C
8037cd10   xdc_runtime_Startup_sfxnTab__A
8037cdc0   ti_sysbios_knl_Task_Object__PARAMS__C
8037ce92   ti_sysbios_family_c66_tci66xx_CpIntc_Module__id__C
8037ce94   ti_sysbios_family_c64p_Hwi_Object__PARAMS__C
8037cec4   ti_sysbios_BIOS_Module__diagsMask__C
8037cec8   ti_sysbios_knl_Task_hooks__A
8037cf54   ti_sysbios_hal_Hwi_Object__PARAMS__C
8037cfd0   ti_sysbios_heaps_HeapMem_Module__FXNS__C
8037cff8   xdc_runtime_LoggerBuf_Object__PARAMS__C
8037d048   ti_sysbios_gates_GateHwi_Module__FXNS__C
8037d06c   ti_sysbios_gates_GateMutex_Module__FXNS__C
8037d090   ti_sysbios_knl_Clock_Object__PARAMS__C
8037d0b4   ti_sysbios_knl_Semaphore_Object__PARAMS__C
8037d11c   ti_sysbios_family_c64p_Hwi_Object__DESC__C
8037d13c   ti_sysbios_BIOS_installedErrorHook__C
8037d140   ti_sysbios_family_c66_tci66xx_CpIntc_hostIntToEventId__A
8037d160   ti_sysbios_gates_GateHwi_Object__DESC__C
8037d180   ti_sysbios_gates_GateMutex_Object__DESC__C
8037d1a0   ti_sysbios_hal_Hwi_Object__DESC__C
8037d1c0   ti_sysbios_heaps_HeapMem_Object__DESC__C
8037d1e0   ti_sysbios_heaps_HeapMem_Object__PARAMS__C
8037d200   ti_sysbios_knl_Clock_Object__DESC__C
8037d220   ti_sysbios_knl_Queue_Object__DESC__C
8037d240   ti_sysbios_knl_Semaphore_Object__DESC__C
8037d260   ti_sysbios_knl_Task_Object__DESC__C
8037d280   xdc_runtime_LoggerBuf_Object__DESC__C
8037d2dc   ti_sysbios_family_c62_TaskSupport_stackAlignment__C
8037d2e0   xdc_runtime_Startup_sfxnRts__A
8037d31c   ti_sysbios_family_c64p_EventCombiner_E_unpluggedEvent__C
8037d320   ti_sysbios_family_c66_tci66xx_CpIntc_eventId__A
8037d33a   ti_sysbios_gates_GateMutex_Module__id__C
8037d33c   ti_sysbios_family_c64p_Exception_E_exceptionMin__C
8037d340   ti_sysbios_family_c66_tci66xx_CpIntc_hostIntToEventId_0__A
8037d35a   ti_sysbios_hal_Hwi_Module__id__C
8037d35c   ti_sysbios_family_c64p_Exception_exceptionHook__C
8037d360   ti_sysbios_family_c66_tci66xx_CpIntc_hostIntToEventId_1__A
8037d37a   ti_sysbios_heaps_HeapMem_Module__id__C
8037d37c   ti_sysbios_family_c64p_Exception_externalHook__C
8037d380   ti_sysbios_family_c66_tci66xx_CpIntc_hostIntToEventId_2__A
8037d39a   ti_sysbios_knl_Clock_Module__id__C
8037d39c   ti_sysbios_family_c64p_Exception_internalHook__C
8037d3a0   ti_sysbios_family_c66_tci66xx_CpIntc_hostIntToEventId_3__A
8037d3ba   ti_sysbios_knl_Clock_Module__loggerDefined__C
8037d3bc   ti_sysbios_family_c64p_Exception_nmiHook__C
8037d3c0   ti_sysbios_family_c66_tci66xx_CpIntc_hostIntToEventId_4__A
8037d3da   ti_sysbios_knl_Semaphore_Module__id__C
8037d3dc   ti_sysbios_family_c64p_Hwi_E_alreadyDefined__C
8037d3e0   ti_sysbios_family_c66_tci66xx_CpIntc_hostIntToEventId_5__A
8037d3fa   ti_sysbios_knl_Semaphore_Module__loggerDefined__C
8037d3fc   ti_sysbios_family_c64p_Hwi_E_handleNotFound__C
8037d400   ti_sysbios_family_c66_tci66xx_CpIntc_hostIntToEventId_6__A
8037d41a   ti_sysbios_knl_Swi_Module__id__C
8037d41c   ti_sysbios_family_c64p_Hwi_LD_end__C
8037d420   ti_sysbios_family_c66_tci66xx_CpIntc_hostIntToEventId_7__A
8037d43a   ti_sysbios_knl_Swi_Module__loggerDefined__C
8037d43c   ti_sysbios_family_c64p_Hwi_LM_begin__C
8037d4b8   ti_sysbios_gates_GateHwi_Object__PARAMS__C
8037d4d0   ti_sysbios_gates_GateMutex_Object__PARAMS__C
8037d4e8   ti_sysbios_knl_Queue_Object__PARAMS__C
8037d582   ti_sysbios_knl_Task_Module__id__C
8037d584   ti_sysbios_family_c64p_Hwi_Module__diagsEnabled__C
8037d588   paMemAligns
8037d598   ti_sysbios_family_c64p_EventCombiner_EVTMASK__C
8037d5b6   ti_sysbios_knl_Task_Module__loggerDefined__C
8037d5b8   ti_sysbios_family_c66_Cache_initSize__C
8037d5da   ti_sysbios_knl_Task_deleteTerminatedTasks__C
8037d5dc   ti_sysbios_family_c64p_Hwi_Module__diagsIncluded__C
8037d5ea   ti_sysbios_knl_Task_initStackFlag__C
8037d5ec   ti_sysbios_family_c64p_Hwi_Module__diagsMask__C
8037d608   ti_sysbios_knl_Idle_funcList__A
8037d610   ti_sysbios_knl_Idle_funcList__C
8037d618   ti_sysbios_knl_Task_hooks__C
8037d620   xdc_runtime_Startup_firstFxns__A
8037d628   xdc_runtime_Startup_firstFxns__C
8037d630   xdc_runtime_Startup_lastFxns__A
8037d638   xdc_runtime_Startup_lastFxns__C
8037d646   ti_sysbios_timers_timer64_Timer_Module__id__C
8037d64e   ti_sysbios_timers_timer64_Timer_startupNeeded__C
8037d656   xdc_runtime_Core_Module__id__C
8037d658   ti_sysbios_family_c64p_Hwi_Module__loggerFxn1__C
8037d65c   ti_sysbios_family_c64p_Hwi_Module__loggerFxn8__C
8037d660   ti_sysbios_family_c64p_Hwi_Module__loggerObj__C
8037d664   ti_sysbios_family_c66_Cache_atomicBlockSize__C
8037d668   ti_sysbios_family_c66_tci66xx_CpIntc_E_unpluggedSysInt__C
8037d66c   ti_sysbios_family_c66_tci66xx_CpIntc_eventId__C
8037d670   ti_sysbios_family_c66_tci66xx_CpIntc_hostIntToEventId__C
8037d674   ti_sysbios_family_c66_tci66xx_CpIntc_numEvents__C
8037d678   ti_sysbios_family_c66_tci66xx_CpIntc_numStatusRegs__C
8037d67c   ti_sysbios_family_c66_tci66xx_CpIntc_numSysInts__C
8037d680   ti_sysbios_family_c66_tci66xx_CpIntc_sysIntToHostInt__C
8037d684   ti_sysbios_gates_GateMutex_A_badContext__C
8037d688   ti_sysbios_gates_GateMutex_Instance_State_sem__O
8037d68c   ti_sysbios_gates_GateMutex_Module__diagsEnabled__C
8037d690   ti_sysbios_gates_GateMutex_Module__diagsIncluded__C
8037d694   ti_sysbios_gates_GateMutex_Module__diagsMask__C
8037d698   ti_sysbios_hal_Hwi_E_stackOverflow__C
8037d69c   ti_sysbios_heaps_HeapBuf_Instance_State_freeList__O
8037d6a0   ti_sysbios_heaps_HeapBuf_Object__count__C
8037d6a4   ti_sysbios_heaps_HeapBuf_Object__table__C
8037d6a8   ti_sysbios_heaps_HeapBuf_numConstructedHeaps__C
8037d6ac   ti_sysbios_heaps_HeapMem_A_align__C
8037d6b0   ti_sysbios_heaps_HeapMem_A_heapSize__C
8037d6b4   ti_sysbios_heaps_HeapMem_A_invalidFree__C
8037d6b8   ti_sysbios_heaps_HeapMem_A_zeroBlock__C
8037d6bc   ti_sysbios_heaps_HeapMem_E_memory__C
8037d6c0   ti_sysbios_heaps_HeapMem_Module__diagsEnabled__C
8037d6c4   ti_sysbios_heaps_HeapMem_Module__diagsIncluded__C
8037d6c8   ti_sysbios_heaps_HeapMem_Module__diagsMask__C
8037d6cc   ti_sysbios_heaps_HeapMem_Module__gateObj__C
8037d6d0   ti_sysbios_heaps_HeapMem_Object__count__C
8037d6d4   ti_sysbios_heaps_HeapMem_Object__table__C
8037d6d8   ti_sysbios_heaps_HeapMem_reqAlignMask__C
8037d6dc   ti_sysbios_heaps_HeapMem_reqAlign__C
8037d6e0   ti_sysbios_knl_Clock_A_badThreadType__C
8037d6e4   ti_sysbios_knl_Clock_LM_begin__C
8037d6e8   ti_sysbios_knl_Clock_LM_tick__C
8037d6ec   ti_sysbios_knl_Clock_LW_delayed__C
8037d6f0   ti_sysbios_knl_Clock_Module_State_clockQ__O
8037d6f4   ti_sysbios_knl_Clock_Module__diagsEnabled__C
8037d6f8   ti_sysbios_knl_Clock_Module__diagsIncluded__C
8037d6fc   ti_sysbios_knl_Clock_Module__diagsMask__C
8037d700   ti_sysbios_knl_Clock_Module__loggerFxn1__C
8037d704   ti_sysbios_knl_Clock_Module__loggerFxn2__C
8037d708   ti_sysbios_knl_Clock_Module__loggerObj__C
8037d70c   ti_sysbios_knl_Clock_tickMode__C
8037d710   ti_sysbios_knl_Clock_tickSource__C
8037d714   ti_sysbios_knl_Queue_Object__count__C
8037d718   ti_sysbios_knl_Queue_Object__table__C
8037d71c   ti_sysbios_knl_Semaphore_A_badContext__C
8037d720   ti_sysbios_knl_Semaphore_A_noEvents__C
8037d724   ti_sysbios_knl_Semaphore_A_overflow__C
8037d728   ti_sysbios_knl_Semaphore_Instance_State_pendQ__O
8037d72c   ti_sysbios_knl_Semaphore_LM_pend__C
8037d730   ti_sysbios_knl_Semaphore_LM_post__C
8037d734   ti_sysbios_knl_Semaphore_Module__diagsEnabled__C
8037d738   ti_sysbios_knl_Semaphore_Module__diagsIncluded__C
8037d73c   ti_sysbios_knl_Semaphore_Module__diagsMask__C
8037d740   ti_sysbios_knl_Semaphore_Module__loggerFxn2__C
8037d744   ti_sysbios_knl_Semaphore_Module__loggerFxn4__C
8037d748   ti_sysbios_knl_Semaphore_Module__loggerObj__C
8037d74c   ti_sysbios_knl_Swi_LD_end__C
8037d750   ti_sysbios_knl_Swi_LM_begin__C
8037d754   ti_sysbios_knl_Swi_LM_post__C
8037d758   ti_sysbios_knl_Swi_Module__diagsEnabled__C
8037d75c   ti_sysbios_knl_Swi_Module__diagsIncluded__C
8037d760   ti_sysbios_knl_Swi_Module__diagsMask__C
8037d764   ti_sysbios_knl_Swi_Module__loggerFxn1__C
8037d768   ti_sysbios_knl_Swi_Module__loggerFxn4__C
8037d76c   ti_sysbios_knl_Swi_Module__loggerObj__C
8037d770   ti_sysbios_knl_Swi_Object__count__C
8037d774   ti_sysbios_knl_Swi_Object__table__C
8037d778   ti_sysbios_knl_Task_A_badPriority__C
8037d77c   ti_sysbios_knl_Task_A_badTaskState__C
8037d780   ti_sysbios_knl_Task_A_badThreadType__C
8037d784   ti_sysbios_knl_Task_A_badTimeout__C
8037d788   ti_sysbios_knl_Task_A_noPendElem__C
8037d78c   ti_sysbios_knl_Task_E_spOutOfBounds__C
8037d790   ti_sysbios_knl_Task_E_stackOverflow__C
8037d794   ti_sysbios_knl_Task_LD_block__C
8037d798   ti_sysbios_knl_Task_LD_exit__C
8037d79c   ti_sysbios_knl_Task_LD_ready__C
8037d7a0   ti_sysbios_knl_Task_LM_setPri__C
8037d7a4   ti_sysbios_knl_Task_LM_sleep__C
8037d7a8   ti_sysbios_knl_Task_LM_switch__C
8037d7ac   ti_sysbios_knl_Task_Module_State_inactiveQ__O
8037d7b0   ti_sysbios_knl_Task_Module_State_terminatedQ__O
8037d7b4   ti_sysbios_knl_Task_Module__diagsEnabled__C
8037d7b8   ti_sysbios_knl_Task_Module__diagsIncluded__C
8037d7bc   ti_sysbios_knl_Task_Module__diagsMask__C
8037d7c0   ti_sysbios_knl_Task_Module__loggerFxn2__C
8037d7c4   ti_sysbios_knl_Task_Module__loggerFxn4__C
8037d7c8   ti_sysbios_knl_Task_Module__loggerObj__C
8037d7cc   ti_sysbios_knl_Task_Object__count__C
8037d7d0   ti_sysbios_knl_Task_Object__heap__C
8037d7d4   ti_sysbios_knl_Task_Object__table__C
8037d7d8   ti_sysbios_knl_Task_allBlockedFunc__C
8037d7dc   ti_sysbios_knl_Task_defaultStackHeap__C
8037d7e0   ti_sysbios_knl_Task_defaultStackSize__C
8037d7e4   ti_sysbios_knl_Task_numConstructedTasks__C
8037d7e8   ti_sysbios_knl_Task_numPriorities__C
8037d7ec   ti_sysbios_timers_timer64_Timer_A_notAvailable__C
8037d7f0   ti_sysbios_timers_timer64_Timer_E_cannotSupport__C
8037d7f4   ti_sysbios_timers_timer64_Timer_Module__diagsEnabled__C
8037d7f8   ti_sysbios_timers_timer64_Timer_Module__diagsIncluded__C
8037d7fc   ti_sysbios_timers_timer64_Timer_Module__diagsMask__C
8037d800   ti_sysbios_timers_timer64_Timer_anyMask__C
8037d804   ti_sysbios_timers_timer64_Timer_freqDivisor__C
8037d808   ti_sysbios_timers_timer64_Timer_numLocalTimers__C
8037d80c   ti_sysbios_timers_timer64_Timer_numTimerDevices__C
8037d810   xdc_runtime_Assert_E_assertFailed__C
8037d814   xdc_runtime_Core_A_initializedParams__C
8037d818   xdc_runtime_Core_Module__diagsEnabled__C
8037d81c   xdc_runtime_Core_Module__diagsIncluded__C
8037d820   xdc_runtime_Core_Module__diagsMask__C
8037d824   xdc_runtime_Error_E_generic__C
8037d828   xdc_runtime_Error_E_memory__C
8037d82c   xdc_runtime_Error_Module__diagsEnabled__C
8037d830   xdc_runtime_Error_Module__diagsIncluded__C
8037d834   xdc_runtime_Error_Module__diagsMask__C
8037d838   xdc_runtime_Error_Module__loggerFxn8__C
8037d83c   xdc_runtime_Error_Module__loggerObj__C
8037d840   xdc_runtime_Error_policy__C
8037d844   xdc_runtime_Error_raiseHook__C
8037d848   xdc_runtime_IFilterLogger_Interface__BASE__C
8037d84c   xdc_runtime_IGateProvider_Interface__BASE__C
8037d850   xdc_runtime_IHeap_Interface__BASE__C
8037d854   xdc_runtime_ILogger_Interface__BASE__C
8037d858   xdc_runtime_IModule_Interface__BASE__C
8037d85c   xdc_runtime_Log_L_error__C
8037d860   xdc_runtime_LoggerBuf_E_badLevel__C
8037d864   xdc_runtime_LoggerBuf_Module__gateObj__C
8037d868   xdc_runtime_LoggerBuf_Object__count__C
8037d86c   xdc_runtime_LoggerBuf_Object__table__C
8037d870   xdc_runtime_LoggerBuf_statusLogger__C
8037d874   xdc_runtime_Memory_defaultHeapInstance__C
8037d878   xdc_runtime_Startup_execImpl__C
8037d87c   xdc_runtime_Startup_maxPasses__C
8037d880   xdc_runtime_Startup_sfxnRts__C
8037d884   xdc_runtime_Startup_sfxnTab__C
8037d888   xdc_runtime_Startup_startModsFxn__C
8037d88c   xdc_runtime_System_Module__gateObj__C
8037d890   xdc_runtime_System_extendFxn__C
8037d894   xdc_runtime_System_maxAtexitHandlers__C
8037d898   xdc_runtime_Text_charTab__C
8037d89c   xdc_runtime_Text_nameEmpty__C
8037d8a0   xdc_runtime_Text_nameStatic__C
8037d8a4   xdc_runtime_Text_nameUnknown__C
8037d8a8   xdc_runtime_Text_nodeTab__C
8037d8ac   xdc_runtime_Text_visitRopeFxn__C
8037d8b0   xdc_runtime_Error_Module__loggerDefined__C
8037d8b2   xdc_runtime_Error_maxDepth__C
8037d8b4   xdc_runtime_LoggerBuf_Module__id__C
8037d8b6   xdc_runtime_LoggerBuf_filterByLevel__C
8037d8b8   xdc_runtime_Memory_Module__id__C
8037d8ba   xdc_runtime_Text_charCnt__C
8037d8bc   xdc_runtime_Text_isLoaded__C
8037d8be   xdc_runtime_Text_registryModsLastId__C
8037d8c0   xdc_runtime_Text_unnamedModsLastId__C
8037d8d0   ADS1298DataFormat
8037d8ec   ADS1298TransferParam
8037d900   queueFree
8037f900   qmssGObj
8037fd00   ti_sysbios_BIOS_Module__state__V
8037fd1c   ti_sysbios_family_c64p_EventCombiner_Module__state__V
8038011c   ti_sysbios_family_c64p_Exception_Module__state__V
80380148   ti_sysbios_family_c64p_Hwi_Module__root__V
80380150   ti_sysbios_family_c64p_Hwi_Module__state__V
803801b8   ti_sysbios_family_c66_tci66xx_CpIntc_Module__state__V
803801c8   ti_sysbios_gates_GateHwi_Module__root__V
803801d0   ti_sysbios_gates_GateMutex_Module__root__V
803801d8   ti_sysbios_hal_Hwi_Module__root__V
803801e0   ti_sysbios_hal_Timer_Module__root__V
803801e8   ti_sysbios_heaps_HeapBuf_Module__root__V
803801f0   ti_sysbios_heaps_HeapBuf_Module__state__V
803801f4   ti_sysbios_heaps_HeapMem_Module__root__V
803801fc   ti_sysbios_knl_Clock_Module__root__V
80380204   ti_sysbios_knl_Clock_Module__state__V
80380230   ti_sysbios_knl_Queue_Module__root__V
80380238   ti_sysbios_knl_Semaphore_Module__root__V
80380240   ti_sysbios_knl_Swi_Module__root__V
80380248   ti_sysbios_knl_Swi_Module__state__V
80380264   ti_sysbios_knl_Task_Module__root__V
8038026c   ti_sysbios_knl_Task_Module__state__V
803802a0   ti_sysbios_timers_timer64_Timer_Module__root__V
803802a8   ti_sysbios_timers_timer64_Timer_Module__state__V
803802bc   xdc_runtime_Error_Module__state__V
803802c0   xdc_runtime_LoggerBuf_Module__root__V
803802c8   xdc_runtime_LoggerBuf_Module__state__V
803802d0   xdc_runtime_Memory_Module__state__V
803802d4   xdc_runtime_Registry_Module__state__V
803802dc   xdc_runtime_Startup_Module__state__V
803802e4   xdc_runtime_System_Module__state__V
803802f0   xdc_runtime_Text_Module__state__V
803802f8   __xdc__init__addr
803802fc   _ft_end
80380300   ti_sysbios_family_c66_tci66xx_CpIntc_Module_State_0_dispatchTab__A
80380800   _ftable
803809e0   ti_sysbios_timers_timer64_Timer_Module_State_0_device__A
80380b60   qmssGblCfgParams
80380c80   ti_sysbios_knl_Task_Object__table__V
80380d58   TSK_idle
80380da0   _ipcfg
80380ef8   ti_sysbios_knl_Swi_Module_State_0_readyQ__A
80380f78   ti_sysbios_knl_Task_Module_State_0_readyQ__A
80380ff8   ti_sysbios_timers_timer64_Timer_Module_State_0_gctrl__A
80381078   ti_sysbios_timers_timer64_Timer_Module_State_0_handles__A
803810f8   ti_sysbios_timers_timer64_Timer_Module_State_0_intFreqs__A
803811f0   cppiGblCfgParams
80381268   ti_sysbios_family_c64p_Hwi_Object__table__V
80381380   ti_sysbios_family_c66_tci66xx_CpIntc_Module_State_0_hostIntToSysInt__A
803813cc   cppiLObj
803813d0   ti_sysbios_timers_timer64_Timer_Object__table__V
8038141c   paLObj
80381520   gstruMpuAddrRange
80381560   ti_sysbios_gates_GateMutex_Object__table__V
803815d4   _cleanup_ptr
803815d8   _dtors_ptr
803815dc   __TI_enable_exit_profile_output
80381618   ti_sysbios_knl_Swi_Object__table__V
80381648   gpEDMA_TC_regs
80381670   gpTimerRegs
80381698   internal_exception_str
803816bc   _oscfg
803816e0   xdc_runtime_LoggerBuf_Object__table__V
80381708   Qmss_highEoiVector
80381728   bus_err_stat_str
80381748   gCIC_EXC_EN_MASK
80381768   gpMPU_regs
80381788   NIMUDeviceTable
80381790   pstrMsgName
803817b0   xdc_runtime_System_Module_State_0_atexitHandlers__A
803817d0   Peri_MPU_err_type_str
80381800   ti_sysbios_knl_Semaphore_Object__table__V
80381848   Ns_str
80381864   _lock
80381868   _unlock
80381888   ti_sysbios_family_c66_tci66xx_CpIntc_Module_State_0_initSIER__A
803818a0   ti_sysbios_heaps_HeapMem_Object__table__V
803818b8   Qmss_lowEoiVector
803818c8   spi_int_str
803818d8   ti_sysbios_family_c66_tci66xx_CpIntc_Module_State_0_controller__A
803818e8   gpEDMA_CC_regs
803818f8   ti_sysbios_hal_Hwi_Object__table__V
80381920   ti_sysbios_hal_Timer_Object__table__V
80381928   ti_sysbios_gates_GateHwi_Object__table__V
80381938   Qmss_cdmaEoiVector
803819a0   gDeviceNandBBlist
80382bcc   gDeviceNand
80382c04   gDeviceNor
80382c3c   gDeviceEeprom0
80382c74   gDeviceEeprom1
80382cb0   emac_port_mode
80383000   ti_sysbios_family_c64p_Hwi0
80383020   ti_sysbios_family_c64p_Hwi1
80383040   ti_sysbios_family_c64p_Hwi2
80383060   ti_sysbios_family_c64p_Hwi3
80383080   ti_sysbios_family_c64p_Hwi4
803830a0   ti_sysbios_family_c64p_Hwi5
803830c0   ti_sysbios_family_c64p_Hwi6
803830e0   ti_sysbios_family_c64p_Hwi7
80383100   ti_sysbios_family_c64p_Hwi8
80383120   ti_sysbios_family_c64p_Hwi9
80383140   ti_sysbios_family_c64p_Hwi10
80383160   ti_sysbios_family_c64p_Hwi11
80383180   ti_sysbios_family_c64p_Hwi12
803831a0   ti_sysbios_family_c64p_Hwi13
803831c0   ti_sysbios_family_c64p_Hwi14
803831e0   ti_sysbios_family_c64p_Hwi15
80383278   __TI_STATIC_BASE
80383290   _IGMPInDiscard
80383294   _IGMPInQuery
80383298   _IGMPInQueryGroup
8038329c   _IGMPInResponse
803832a0   _IGMPOutResponse
803832a4   gTxCmdReturnQHnd
803832a8   gTxCmdFreeQHnd
803832ac   ethSemHandle
803832e4   gpXMC_regs
803832e8   gpCGEM_regs
803832ec   gpBootCfgRegs
803832f0   gpPLLC_regs
803832f4   gpPSC_regs
803832f8   gpMSMC_regs
803832fc   gpGPIO_regs
80383300   gpCIC0_regs
80383304   gpCIC1_regs
80383308   gpCIC_regs
8038330c   gpEDMA_CC0_regs
80383310   gpEDMA_CC1_regs
80383314   gpEDMA_CC2_regs
80383318   gpEDMA_TC_0_0_regs
8038331c   gpEDMA_TC_0_1_regs
80383320   gpEDMA_TC_1_0_regs
80383324   gpEDMA_TC_1_1_regs
80383328   gpEDMA_TC_1_2_regs
8038332c   gpEDMA_TC_1_3_regs
80383330   gpEDMA_TC_2_0_regs
80383334   gpEDMA_TC_2_1_regs
80383338   gpEDMA_TC_2_2_regs
8038333c   gpEDMA_TC_2_3_regs
80383340   gpTimer0Regs
80383344   gpTimer1Regs
80383348   gpTimer2Regs
8038334c   gpTimer3Regs
80383350   gpTimer4Regs
80383354   gpTimer5Regs
80383358   gpTimer6Regs
8038335c   gpTimer7Regs
80383360   gpTimer8Regs
80383364   gpMPU0_regs
80383368   gpMPU1_regs
8038336c   gpMPU2_regs
80383370   gpMPU3_regs
80383374   gpDDR_regs
80383378   gDSP_Core_Speed_Hz
8038337c   cycle_measure_overhead
80383380   uiLL2_scrub_addr
80383384   LL2_EDC_victim_err_str
80383388   LL2_EDC_DMA_err_str
8038338c   LL2_EDC_L1D_err_str
80383390   LL2_EDC_L1P_err_str
80383394   guwIntcCICExcEvtIdx
80383398   gCIC_EXC_out_num
8038339c   CONTENT_TYPE_APPLET
803833a0   CONTENT_TYPE_AU
803833a4   CONTENT_TYPE_CSS
803833a8   CONTENT_TYPE_DOC
803833ac   CONTENT_TYPE_GIF
803833b0   CONTENT_TYPE_HTML
803833b4   CONTENT_TYPE_JPG
803833b8   CONTENT_TYPE_MPEG
803833bc   CONTENT_TYPE_PDF
803833c0   CONTENT_TYPE_WAV
803833c4   CONTENT_TYPE_ZIP
803833c8   CONTENT_TYPE
803833cc   CONTENT_LENGTH
803833d0   CRLF
803833d4   DEFAULT_NAME
803833d8   HTTP_VER
803833dc   SPACE
803833e0   PITCount
803833e4   PITUsed
803833e8   PITHigh
80383404   VerStr
80383408   HostName
8038340c   LocalIPAddr
80383410   LocalIPMask
80383414   GatewayIP
80383418   DomainName
8038341c   DNSServer
80383490   _IGMPForceVersion1
803834a4   DebugLogSize
803834a8   DebugCritError
803834b4   _ICMPInErrors
803834b8   _ICMPOutErrors
803834bc   _IPExecuting
803834cc   gFragQList
803834ec   tcp_iss
803834f0   ptTimeFirst
803834f4   pt6TimeFirst
803834f8   tcp6_iss
80383504   platform_errno
80383508   platform_init_return_code
8038350c   spiRegs
80383510   SPI_event_num
80383520   httpErrorResponseHook
8038352c   _IPReasmPtr
80383534   gMLDNodeList
8038354c   qmssLObjIsValid
80383550   IPV6_MAX_MULTICAST_SOLICIT
80383554   IPV6_MAX_UNICAST_SOLICIT
80383558   IPV6_RETRANS_TIME
8038355c   IPV6_DELAY_FIRST_PROBE_TIME
80383560   IPV6_REACHABLE_TIME
80383564   IPV6_MAX_RTR_SOLICITATION_DELAY
80383568   IPV6_RTR_SOLICITATION_INTERVAL
8038356c   IPV6_MAX_RTR_SOLICITATIONS
80383570   INFINITE_LT
80383574   heap0
80383578   semDRDY
8038357c   tskNetworkInit
80383580   tskADS1298Init
80383584   ti_ndk_config_Global_rawPageSize
80383588   ti_ndk_config_Global_rawPageCount
8038358c   ti_ndk_config_Global_smallest
80383590   ti_ndk_config_Global_largest
80383594   ti_ndk_config_Global_numFrameBuf
80383598   ti_ndk_config_Global_sizeFrameBuf
80383600   cppiObject
80383800   __CIOBUF_
80385088   __TI_Handler_Table_Base
80385094   __TI_Handler_Table_Limit
803850f0   __TI_CINIT_Base
80385178   __TI_CINIT_Limit
ffffffff   __TI_pprof_out_hndl
ffffffff   __TI_prof_data_size
ffffffff   __TI_prof_data_start
ffffffff   __binit__
ffffffff   __c_args__
ffffffff   binit
UNDEFED    __TI_INITARRAY_Base
UNDEFED    __TI_INITARRAY_Limit

[1809 symbols]
